"File: BS45F3235_LIB.c  Assembler  Version HGASM0202      Page 1


   1  0000              ; Generated by holtek-gcc v3.19, Mon Apr 06 10:41:26 2020
   2  0000              ; 
   3  0000              ; Configuration:
   4  0000              ;       without long instruction
   5  0000              ;       Single ROM, Multi-RAM
   6  0000              ;       bits_per_rom_unit:14
   7  0000              ;       with mp1
   8  0000              ;       with tbhp, address(0x1f)
   9  0000              ;          Use ret-const
  10  0000              ;       
  11  0000              ;       
  12  0000              ;       
  13  0000              ; use 'tabrdc' instead of 'tabrd'
  14  0000              ;       
  15  0000              
  16  0000              #pragma translator "holtek-gcc 4.6.4" "3.19" "build 20130711"
  17  0000              ; Rebuild 718
  18  0000              
  19  0000              ir equ [2]
  20  0000              mp equ [3]
  21  0000              sbp equ [7]
  22  0000              acc equ [5]
  23  0000              bp equ [4]
  24  0000              status equ [10]
  25  0000              c equ [10].0
  26  0000              ac equ [10].1
  27  0000              z equ [10].2
  28  0000              ov equ [10].3
  29  0000              intc equ [11]
  30  0000              
  31  0000              extern ra:byte
  32  0000              extern rb:byte
  33  0000              extern rc:byte
  34  0000              extern rd:byte
  35  0000              extern re:byte
  36  0000              extern rf:byte
  37  0000              extern rg:byte
  38  0000              extern rh:byte
  39  0000              extern _Crom2Prom:near
  40  0000              extern _Crom2PromNext:near
  41  0000              
  42  0000              RAMBANK 0 @HCCINIT, @HCCINIT0
  43  0000              
  44  0000              RAMBANK 0 @BITDATASEC, @BITDATASEC1
  45  0000              @HCCINIT	.section 'data'
  46  0000              @HCCINIT0	.section 'data'
  47  0000              @BITDATASEC	 .section 'data'
  48  0000              @BITDATASEC1	 .section 'data'
  49  0000              
  50  0000              #pragma debug scope 1 1
  51  0000              	extern __DELAY3:near
  52  0000              	extern __DELAYX3:near
  53  0000              	extern __DELAYX6:near
  54  0000              	extern __DELAYY5:near
  55  0000              	extern __DELAYY3:near
  56  0000              	extern _builtin_holtek_delay_2:byte
  57  0000              ___utxr_rxr equ [28]
  58  0000              ___uusr equ [30]
  59  0000              public _uart_sent
"File: BS45F3235_LIB.ASM  Assembler  Version HGASM0202      Page 2

  60  0000              #pragma debug scope 2 1

  22  0000              #line 22 "F:\Project\Carilex\E-Signal\i2c\200323-1\200323-1\BS45F3235_LIB.c"
  22  0000              _uart_sent .section 'code'
  22  0000              _uart_sent proc
  23  0000              #line 23 "F:\Project\Carilex\E-Signal\i2c\200323-1\200323-1\BS45F3235_LIB.c"
  23  0000  0700     R  	mov a,_buffer[1]
  23  0001  009C        	mov [28],a
  23  0002              _L2:
  24  0002              #line 24 "F:\Project\Carilex\E-Signal\i2c\200323-1\200323-1\BS45F3235_LIB.c"
  24  0002  3C9E        	sz [30].1
  24  0003  2800     R  	jmp _L7
  25  0004              #line 25 "F:\Project\Carilex\E-Signal\i2c\200323-1\200323-1\BS45F3235_LIB.c"
  25  0004              ;# 25 "F:\Project\Carilex\E-Signal\i2c\200323-1\200323-1\BS45F3235_LIB.c" 1
  25  0004  0001        	clr wdt
  25  0005  2800     R  	jmp _L2
  25  0006              _L7:
  27  0006              #line 27 "F:\Project\Carilex\E-Signal\i2c\200323-1\200323-1\BS45F3235_LIB.c"
  27  0006  0700     R  	mov a,_buffer[0]
  27  0007  009C        	mov [28],a
  28  0008              #line 28 "F:\Project\Carilex\E-Signal\i2c\200323-1\200323-1\BS45F3235_LIB.c"
  28  0008  2800     R  	jmp _L4
  28  0009              _L5:
  29  0009              #line 29 "F:\Project\Carilex\E-Signal\i2c\200323-1\200323-1\BS45F3235_LIB.c"
  29  0009              ;# 29 "F:\Project\Carilex\E-Signal\i2c\200323-1\200323-1\BS45F3235_LIB.c" 1
  29  0009  0001        	clr wdt
  29  000A              _L4:
  28  000A              #line 28 "F:\Project\Carilex\E-Signal\i2c\200323-1\200323-1\BS45F3235_LIB.c"
  28  000A  389E        	snz [30].1
  28  000B  2800     R  	jmp _L5
  28  000C  0003        	ret
  28  000D              _uart_sent endp
  28  000D              #line 28 "F:\Project\Carilex\E-Signal\i2c\200323-1\200323-1\BS45F3235_LIB.c"
  28  000D              #pragma debug scope 1 1
  28  000D              ___status equ [10]
  28  000D              ___hircc equ [12]
  28  000D              ___pbpu equ [39]
  28  000D              ___papu equ [22]
  28  000D              ___pac equ [21]
  28  000D              ___pbc equ [38]
  28  000D              public _main
  28  000D              #pragma debug scope 3 1
  33  000D              #line 33 "F:\Project\Carilex\E-Signal\i2c\200323-1\200323-1\BS45F3235_LIB.c"
  33  000D              IFDEF WITH_DEFAULT_STARTUP
  33  000D              extern _main_initial0:near
  33  000D              extern _main_startup:near
  33  000D              ENDIF
  33  000D              
  33  000D              ROMBANK 0 @start
  33  0000              @start .section com_l 'code'
  33  0000              _main_startup1:
  33  0000              @start .section com_e 'code'
  33  0000  2800     R  	jmp _main
  33  0001              
  33  0000              _main .section 'code'
  33  0000              _main proc
  34  0000              #line 34 "F:\Project\Carilex\E-Signal\i2c\200323-1\200323-1\BS45F3235_LIB.c"
  34  0000  3E8A        	sz [10].5
  34  0001  2800     R  	jmp _L14
  34  0002              _L10:
"File: BS45F3235_LIB.c  Assembler  Version HGASM0202      Page 3

  36  0002              #line 36 "F:\Project\Carilex\E-Signal\i2c\200323-1\200323-1\BS45F3235_LIB.c"
  36  0002  3C8C        	sz [12].1
  36  0003  2800     R  	jmp _L15
  37  0004              #line 37 "F:\Project\Carilex\E-Signal\i2c\200323-1\200323-1\BS45F3235_LIB.c"
  37  0004              ;# 37 "F:\Project\Carilex\E-Signal\i2c\200323-1\200323-1\BS45F3235_LIB.c" 1
  37  0004              	IF 100>263690
  37  0004              ;# 37 "F:\Project\Carilex\E-Signal\i2c\200323-1\200323-1\BS45F3235_LIB.c" 1
  37  0004              	ERRMESSAGE 'the value 100of the argument exceeds the maxinum 263690'
  37  0004              	ENDIF
  37  0004              ;# 37 "F:\Project\Carilex\E-Signal\i2c\200323-1\200323-1\BS45F3235_LIB.c" 1
  37  0004              	IF 100<0
  37  0004              ;# 37 "F:\Project\Carilex\E-Signal\i2c\200323-1\200323-1\BS45F3235_LIB.c" 1
  37  0004              	ERRMESSAGE 'the value 100 of the argument exceeds the mininum 0'
  37  0004              	ENDIF
  37  0004              ;# 37 "F:\Project\Carilex\E-Signal\i2c\200323-1\200323-1\BS45F3235_LIB.c" 1
  37  0004              	IF 100==0
  37  0004              ;# 37 "F:\Project\Carilex\E-Signal\i2c\200323-1\200323-1\BS45F3235_LIB.c" 1
  37  0004              	JMP $
  37  0004              	ENDIF
  37  0004              ;# 37 "F:\Project\Carilex\E-Signal\i2c\200323-1\200323-1\BS45F3235_LIB.c" 1
  37  0004              	IF 100==1
  37  0004              ;# 37 "F:\Project\Carilex\E-Signal\i2c\200323-1\200323-1\BS45F3235_LIB.c" 1
  37  0004              	NOP
  37  0004              	ENDIF
  37  0004              ;# 37 "F:\Project\Carilex\E-Signal\i2c\200323-1\200323-1\BS45F3235_LIB.c" 1
  37  0004              	IF 100==2
  37  0004              ;# 37 "F:\Project\Carilex\E-Signal\i2c\200323-1\200323-1\BS45F3235_LIB.c" 1
  37  0004              	NOP
  37  0004              ;# 37 "F:\Project\Carilex\E-Signal\i2c\200323-1\200323-1\BS45F3235_LIB.c" 1
  37  0004              	NOP
  37  0004              	ENDIF
  37  0004              ;# 37 "F:\Project\Carilex\E-Signal\i2c\200323-1\200323-1\BS45F3235_LIB.c" 1
  37  0004              	IF 100==3
  37  0004              ;# 37 "F:\Project\Carilex\E-Signal\i2c\200323-1\200323-1\BS45F3235_LIB.c" 1
  37  0004              	NOP
  37  0004              ;# 37 "F:\Project\Carilex\E-Signal\i2c\200323-1\200323-1\BS45F3235_LIB.c" 1
  37  0004              	NOP
  37  0004              ;# 37 "F:\Project\Carilex\E-Signal\i2c\200323-1\200323-1\BS45F3235_LIB.c" 1
  37  0004              	NOP
  37  0004              	ENDIF
  37  0004              ;# 37 "F:\Project\Carilex\E-Signal\i2c\200323-1\200323-1\BS45F3235_LIB.c" 1
  37  0004              	IF (100<8) AND (100>3)
  37  0004              ;# 37 "F:\Project\Carilex\E-Signal\i2c\200323-1\200323-1\BS45F3235_LIB.c" 1
  37  0004              	CALL __DELAY3 + 7 -100
  37  0004              	ENDIF
  37  0004              ;# 37 "F:\Project\Carilex\E-Signal\i2c\200323-1\200323-1\BS45F3235_LIB.c" 1
  37  0004              	IF (100< 0404h) AND (100>7)
  37  0004              ;# 37 "F:\Project\Carilex\E-Signal\i2c\200323-1\200323-1\BS45F3235_LIB.c" 1
  37  0004  0F18        	MOV A,100/4-1
  37  0005              ;# 37 "F:\Project\Carilex\E-Signal\i2c\200323-1\200323-1\BS45F3235_LIB.c" 1
  37  0005  2000     E  	CALL __DELAYX3 + 3 -(100 MOD 4)
  37  0006              	ENDIF
  37  0006              ;# 37 "F:\Project\Carilex\E-Signal\i2c\200323-1\200323-1\BS45F3235_LIB.c" 1
  37  0006              	IF (100< 0x40B) AND (100> 0403h)
  37  0006              ;# 37 "F:\Project\Carilex\E-Signal\i2c\200323-1\200323-1\BS45F3235_LIB.c" 1
  37  0006              	MOV A,0 
  37  0006              ;# 37 "F:\Project\Carilex\E-Signal\i2c\200323-1\200323-1\BS45F3235_LIB.c" 1
  37  0006              	CALL __DELAYX6 + 0x40a -100
  37  0006              	ENDIF
  37  0006              ;# 37 "F:\Project\Carilex\E-Signal\i2c\200323-1\200323-1\BS45F3235_LIB.c" 1
"File: BS45F3235_LIB.c  Assembler  Version HGASM0202      Page 4

  37  0006              	IF (100 >= 0x40b) AND ((((100-9)%0402h)/4+1)>256)
  37  0006              ;# 37 "F:\Project\Carilex\E-Signal\i2c\200323-1\200323-1\BS45F3235_LIB.c" 1
  37  0006              	MOV A,(100-9)/0402h
  37  0006              ;# 37 "F:\Project\Carilex\E-Signal\i2c\200323-1\200323-1\BS45F3235_LIB.c" 1
  37  0006              	MOV _builtin_holtek_delay_2,A
  37  0006              ;# 37 "F:\Project\Carilex\E-Signal\i2c\200323-1\200323-1\BS45F3235_LIB.c" 1
  37  0006              	MOV A,0
  37  0006              ;# 37 "F:\Project\Carilex\E-Signal\i2c\200323-1\200323-1\BS45F3235_LIB.c" 1
  37  0006              	CALL __DELAYY5 +5- (((100-9)%0402h)%6)
  37  0006              	ENDIF
  37  0006              ;# 37 "F:\Project\Carilex\E-Signal\i2c\200323-1\200323-1\BS45F3235_LIB.c" 1
  37  0006              	IF (100 >= 0x40b) AND ((((100-9)%0402h)/4+1)<=256)
  37  0006              ;# 37 "F:\Project\Carilex\E-Signal\i2c\200323-1\200323-1\BS45F3235_LIB.c" 1
  37  0006              	MOV A,(100-9)/0402h
  37  0006              ;# 37 "F:\Project\Carilex\E-Signal\i2c\200323-1\200323-1\BS45F3235_LIB.c" 1
  37  0006              	MOV _builtin_holtek_delay_2,A
  37  0006              ;# 37 "F:\Project\Carilex\E-Signal\i2c\200323-1\200323-1\BS45F3235_LIB.c" 1
  37  0006              	MOV A,((100-9)%0402h)/4+1
  37  0006              ;# 37 "F:\Project\Carilex\E-Signal\i2c\200323-1\200323-1\BS45F3235_LIB.c" 1
  37  0006              	CALL __DELAYY3 +3-(((100-9)%0402h)%4)
  37  0006              	ENDIF
  37  0006  2800     R  	jmp _L10
  37  0007              _L15:
  38  0007              #line 38 "F:\Project\Carilex\E-Signal\i2c\200323-1\200323-1\BS45F3235_LIB.c"
  38  0007              ;# 38 "F:\Project\Carilex\E-Signal\i2c\200323-1\200323-1\BS45F3235_LIB.c" 1
  38  0007              	IF 20000>263690
  38  0007              ;# 38 "F:\Project\Carilex\E-Signal\i2c\200323-1\200323-1\BS45F3235_LIB.c" 1
  38  0007              	ERRMESSAGE 'the value 20000of the argument exceeds the maxinum 263690'
  38  0007              	ENDIF
  38  0007              ;# 38 "F:\Project\Carilex\E-Signal\i2c\200323-1\200323-1\BS45F3235_LIB.c" 1
  38  0007              	IF 20000<0
  38  0007              ;# 38 "F:\Project\Carilex\E-Signal\i2c\200323-1\200323-1\BS45F3235_LIB.c" 1
  38  0007              	ERRMESSAGE 'the value 20000 of the argument exceeds the mininum 0'
  38  0007              	ENDIF
  38  0007              ;# 38 "F:\Project\Carilex\E-Signal\i2c\200323-1\200323-1\BS45F3235_LIB.c" 1
  38  0007              	IF 20000==0
  38  0007              ;# 38 "F:\Project\Carilex\E-Signal\i2c\200323-1\200323-1\BS45F3235_LIB.c" 1
  38  0007              	JMP $
  38  0007              	ENDIF
  38  0007              ;# 38 "F:\Project\Carilex\E-Signal\i2c\200323-1\200323-1\BS45F3235_LIB.c" 1
  38  0007              	IF 20000==1
  38  0007              ;# 38 "F:\Project\Carilex\E-Signal\i2c\200323-1\200323-1\BS45F3235_LIB.c" 1
  38  0007              	NOP
  38  0007              	ENDIF
  38  0007              ;# 38 "F:\Project\Carilex\E-Signal\i2c\200323-1\200323-1\BS45F3235_LIB.c" 1
  38  0007              	IF 20000==2
  38  0007              ;# 38 "F:\Project\Carilex\E-Signal\i2c\200323-1\200323-1\BS45F3235_LIB.c" 1
  38  0007              	NOP
  38  0007              ;# 38 "F:\Project\Carilex\E-Signal\i2c\200323-1\200323-1\BS45F3235_LIB.c" 1
  38  0007              	NOP
  38  0007              	ENDIF
  38  0007              ;# 38 "F:\Project\Carilex\E-Signal\i2c\200323-1\200323-1\BS45F3235_LIB.c" 1
  38  0007              	IF 20000==3
  38  0007              ;# 38 "F:\Project\Carilex\E-Signal\i2c\200323-1\200323-1\BS45F3235_LIB.c" 1
  38  0007              	NOP
  38  0007              ;# 38 "F:\Project\Carilex\E-Signal\i2c\200323-1\200323-1\BS45F3235_LIB.c" 1
  38  0007              	NOP
  38  0007              ;# 38 "F:\Project\Carilex\E-Signal\i2c\200323-1\200323-1\BS45F3235_LIB.c" 1
  38  0007              	NOP
  38  0007              	ENDIF
"File: BS45F3235_LIB.c  Assembler  Version HGASM0202      Page 5

  38  0007              ;# 38 "F:\Project\Carilex\E-Signal\i2c\200323-1\200323-1\BS45F3235_LIB.c" 1
  38  0007              	IF (20000<8) AND (20000>3)
  38  0007              ;# 38 "F:\Project\Carilex\E-Signal\i2c\200323-1\200323-1\BS45F3235_LIB.c" 1
  38  0007              	CALL __DELAY3 + 7 -20000
  38  0007              	ENDIF
  38  0007              ;# 38 "F:\Project\Carilex\E-Signal\i2c\200323-1\200323-1\BS45F3235_LIB.c" 1
  38  0007              	IF (20000< 0404h) AND (20000>7)
  38  0007              ;# 38 "F:\Project\Carilex\E-Signal\i2c\200323-1\200323-1\BS45F3235_LIB.c" 1
  38  0007              	MOV A,20000/4-1
  38  0007              ;# 38 "F:\Project\Carilex\E-Signal\i2c\200323-1\200323-1\BS45F3235_LIB.c" 1
  38  0007              	CALL __DELAYX3 + 3 -(20000 MOD 4)
  38  0007              	ENDIF
  38  0007              ;# 38 "F:\Project\Carilex\E-Signal\i2c\200323-1\200323-1\BS45F3235_LIB.c" 1
  38  0007              	IF (20000< 0x40B) AND (20000> 0403h)
  38  0007              ;# 38 "F:\Project\Carilex\E-Signal\i2c\200323-1\200323-1\BS45F3235_LIB.c" 1
  38  0007              	MOV A,0 
  38  0007              ;# 38 "F:\Project\Carilex\E-Signal\i2c\200323-1\200323-1\BS45F3235_LIB.c" 1
  38  0007              	CALL __DELAYX6 + 0x40a -20000
  38  0007              	ENDIF
  38  0007              ;# 38 "F:\Project\Carilex\E-Signal\i2c\200323-1\200323-1\BS45F3235_LIB.c" 1
  38  0007              	IF (20000 >= 0x40b) AND ((((20000-9)%0402h)/4+1)>256)
  38  0007              ;# 38 "F:\Project\Carilex\E-Signal\i2c\200323-1\200323-1\BS45F3235_LIB.c" 1
  38  0007              	MOV A,(20000-9)/0402h
  38  0007              ;# 38 "F:\Project\Carilex\E-Signal\i2c\200323-1\200323-1\BS45F3235_LIB.c" 1
  38  0007              	MOV _builtin_holtek_delay_2,A
  38  0007              ;# 38 "F:\Project\Carilex\E-Signal\i2c\200323-1\200323-1\BS45F3235_LIB.c" 1
  38  0007              	MOV A,0
  38  0007              ;# 38 "F:\Project\Carilex\E-Signal\i2c\200323-1\200323-1\BS45F3235_LIB.c" 1
  38  0007              	CALL __DELAYY5 +5- (((20000-9)%0402h)%6)
  38  0007              	ENDIF
  38  0007              ;# 38 "F:\Project\Carilex\E-Signal\i2c\200323-1\200323-1\BS45F3235_LIB.c" 1
  38  0007              	IF (20000 >= 0x40b) AND ((((20000-9)%0402h)/4+1)<=256)
  38  0007              ;# 38 "F:\Project\Carilex\E-Signal\i2c\200323-1\200323-1\BS45F3235_LIB.c" 1
  38  0007  0F13        	MOV A,(20000-9)/0402h
  38  0008              ;# 38 "F:\Project\Carilex\E-Signal\i2c\200323-1\200323-1\BS45F3235_LIB.c" 1
  38  0008  0080     E  	MOV _builtin_holtek_delay_2,A
  38  0009              ;# 38 "F:\Project\Carilex\E-Signal\i2c\200323-1\200323-1\BS45F3235_LIB.c" 1
  38  0009  0F7D        	MOV A,((20000-9)%0402h)/4+1
  38  000A              ;# 38 "F:\Project\Carilex\E-Signal\i2c\200323-1\200323-1\BS45F3235_LIB.c" 1
  38  000A  2000     E  	CALL __DELAYY3 +3-(((20000-9)%0402h)%4)
  38  000B              	ENDIF
  40  000B              #line 40 "F:\Project\Carilex\E-Signal\i2c\200323-1\200323-1\BS45F3235_LIB.c"
  40  000B  2000     E  	call _clear_ram
  41  000C              #line 41 "F:\Project\Carilex\E-Signal\i2c\200323-1\200323-1\BS45F3235_LIB.c"
  41  000C  2000     E  	call _initial
  41  000D  2800     R  	jmp _L12
  41  000E              _L14:
  45  000E              #line 45 "F:\Project\Carilex\E-Signal\i2c\200323-1\200323-1\BS45F3235_LIB.c"
  45  000E  368A        	clr [10].5
  46  000F              #line 46 "F:\Project\Carilex\E-Signal\i2c\200323-1\200323-1\BS45F3235_LIB.c"
  46  000F  2000     E  	call _wake_set
  46  0010              _L12:
  48  0010              #line 48 "F:\Project\Carilex\E-Signal\i2c\200323-1\200323-1\BS45F3235_LIB.c"
  48  0010  30A7        	set [39].1
  49  0011              #line 49 "F:\Project\Carilex\E-Signal\i2c\200323-1\200323-1\BS45F3235_LIB.c"
  49  0011  3216        	set [22].4
  50  0012              #line 50 "F:\Project\Carilex\E-Signal\i2c\200323-1\200323-1\BS45F3235_LIB.c"
  50  0012  3615        	clr [21].4
  51  0013              #line 51 "F:\Project\Carilex\E-Signal\i2c\200323-1\200323-1\BS45F3235_LIB.c"
  51  0013  34A6        	clr [38].1
"File: BS45F3235_LIB.c  Assembler  Version HGASM0202      Page 6

  53  0014              #line 53 "F:\Project\Carilex\E-Signal\i2c\200323-1\200323-1\BS45F3235_LIB.c"
  53  0014  0F01        	mov a,1
  53  0015  0080     E  	mov _ReadTOF_2[4],a
  53  0016  0F00     R  	mov a,low offset _buffer
  53  0017  0080     E  	mov _ReadTOF_2[2],a
  53  0018  0F00     R  	mov a,high offset _buffer
  53  0019  0080     E  	mov _ReadTOF_2[3],a
  53  001A  1F00     E  	clr _ReadTOF_2[0]
  53  001B  1F00     E  	clr _ReadTOF_2[1]
  53  001C  2000     E  	call _ReadTOF
  54  001D              #line 54 "F:\Project\Carilex\E-Signal\i2c\200323-1\200323-1\BS45F3235_LIB.c"
  54  001D  0F55        	mov a,85
  54  001E  0080     R  	mov _buffer[1],a
  55  001F              #line 55 "F:\Project\Carilex\E-Signal\i2c\200323-1\200323-1\BS45F3235_LIB.c"
  55  001F  2000     R  	call _uart_sent
  56  0020              #line 56 "F:\Project\Carilex\E-Signal\i2c\200323-1\200323-1\BS45F3235_LIB.c"
  56  0020  0F00     R  	mov a,low offset _buffer
  56  0021  0080     E  	mov _InitTOF_2[0],a
  56  0022  0F00     R  	mov a,high offset _buffer
  56  0023  0080     E  	mov _InitTOF_2[1],a
  56  0024  2000     E  	call _InitTOF
  58  0025              #line 58 "F:\Project\Carilex\E-Signal\i2c\200323-1\200323-1\BS45F3235_LIB.c"
  58  0025  1F00     R  	clr _buffer[0]
  59  0026              #line 59 "F:\Project\Carilex\E-Signal\i2c\200323-1\200323-1\BS45F3235_LIB.c"
  59  0026  1F80     R  	set _buffer[1]
  60  0027              #line 60 "F:\Project\Carilex\E-Signal\i2c\200323-1\200323-1\BS45F3235_LIB.c"
  60  0027  2000     R  	call _uart_sent
  60  0028              _L13:
  63  0028              #line 63 "F:\Project\Carilex\E-Signal\i2c\200323-1\200323-1\BS45F3235_LIB.c"
  63  0028              ;# 63 "F:\Project\Carilex\E-Signal\i2c\200323-1\200323-1\BS45F3235_LIB.c" 1
  63  0028  0001        	clr wdt
  64  0029              #line 64 "F:\Project\Carilex\E-Signal\i2c\200323-1\200323-1\BS45F3235_LIB.c"
  64  0029  0F00     R  	mov a,low offset _buffer
  64  002A  0080     E  	mov _doScan_2[0],a
  64  002B  0F00     R  	mov a,high offset _buffer
  64  002C  0080     E  	mov _doScan_2[1],a
  64  002D  2000     E  	call _doScan
  72  002E              #line 72 "F:\Project\Carilex\E-Signal\i2c\200323-1\200323-1\BS45F3235_LIB.c"
  72  002E              ;# 72 "F:\Project\Carilex\E-Signal\i2c\200323-1\200323-1\BS45F3235_LIB.c" 1
  72  002E              	IF 2000>263690
  72  002E              ;# 72 "F:\Project\Carilex\E-Signal\i2c\200323-1\200323-1\BS45F3235_LIB.c" 1
  72  002E              	ERRMESSAGE 'the value 2000of the argument exceeds the maxinum 263690'
  72  002E              	ENDIF
  72  002E              ;# 72 "F:\Project\Carilex\E-Signal\i2c\200323-1\200323-1\BS45F3235_LIB.c" 1
  72  002E              	IF 2000<0
  72  002E              ;# 72 "F:\Project\Carilex\E-Signal\i2c\200323-1\200323-1\BS45F3235_LIB.c" 1
  72  002E              	ERRMESSAGE 'the value 2000 of the argument exceeds the mininum 0'
  72  002E              	ENDIF
  72  002E              ;# 72 "F:\Project\Carilex\E-Signal\i2c\200323-1\200323-1\BS45F3235_LIB.c" 1
  72  002E              	IF 2000==0
  72  002E              ;# 72 "F:\Project\Carilex\E-Signal\i2c\200323-1\200323-1\BS45F3235_LIB.c" 1
  72  002E              	JMP $
  72  002E              	ENDIF
  72  002E              ;# 72 "F:\Project\Carilex\E-Signal\i2c\200323-1\200323-1\BS45F3235_LIB.c" 1
  72  002E              	IF 2000==1
  72  002E              ;# 72 "F:\Project\Carilex\E-Signal\i2c\200323-1\200323-1\BS45F3235_LIB.c" 1
  72  002E              	NOP
  72  002E              	ENDIF
  72  002E              ;# 72 "F:\Project\Carilex\E-Signal\i2c\200323-1\200323-1\BS45F3235_LIB.c" 1
  72  002E              	IF 2000==2
"File: BS45F3235_LIB.c  Assembler  Version HGASM0202      Page 7

  72  002E              ;# 72 "F:\Project\Carilex\E-Signal\i2c\200323-1\200323-1\BS45F3235_LIB.c" 1
  72  002E              	NOP
  72  002E              ;# 72 "F:\Project\Carilex\E-Signal\i2c\200323-1\200323-1\BS45F3235_LIB.c" 1
  72  002E              	NOP
  72  002E              	ENDIF
  72  002E              ;# 72 "F:\Project\Carilex\E-Signal\i2c\200323-1\200323-1\BS45F3235_LIB.c" 1
  72  002E              	IF 2000==3
  72  002E              ;# 72 "F:\Project\Carilex\E-Signal\i2c\200323-1\200323-1\BS45F3235_LIB.c" 1
  72  002E              	NOP
  72  002E              ;# 72 "F:\Project\Carilex\E-Signal\i2c\200323-1\200323-1\BS45F3235_LIB.c" 1
  72  002E              	NOP
  72  002E              ;# 72 "F:\Project\Carilex\E-Signal\i2c\200323-1\200323-1\BS45F3235_LIB.c" 1
  72  002E              	NOP
  72  002E              	ENDIF
  72  002E              ;# 72 "F:\Project\Carilex\E-Signal\i2c\200323-1\200323-1\BS45F3235_LIB.c" 1
  72  002E              	IF (2000<8) AND (2000>3)
  72  002E              ;# 72 "F:\Project\Carilex\E-Signal\i2c\200323-1\200323-1\BS45F3235_LIB.c" 1
  72  002E              	CALL __DELAY3 + 7 -2000
  72  002E              	ENDIF
  72  002E              ;# 72 "F:\Project\Carilex\E-Signal\i2c\200323-1\200323-1\BS45F3235_LIB.c" 1
  72  002E              	IF (2000< 0404h) AND (2000>7)
  72  002E              ;# 72 "F:\Project\Carilex\E-Signal\i2c\200323-1\200323-1\BS45F3235_LIB.c" 1
  72  002E              	MOV A,2000/4-1
  72  002E              ;# 72 "F:\Project\Carilex\E-Signal\i2c\200323-1\200323-1\BS45F3235_LIB.c" 1
  72  002E              	CALL __DELAYX3 + 3 -(2000 MOD 4)
  72  002E              	ENDIF
  72  002E              ;# 72 "F:\Project\Carilex\E-Signal\i2c\200323-1\200323-1\BS45F3235_LIB.c" 1
  72  002E              	IF (2000< 0x40B) AND (2000> 0403h)
  72  002E              ;# 72 "F:\Project\Carilex\E-Signal\i2c\200323-1\200323-1\BS45F3235_LIB.c" 1
  72  002E              	MOV A,0 
  72  002E              ;# 72 "F:\Project\Carilex\E-Signal\i2c\200323-1\200323-1\BS45F3235_LIB.c" 1
  72  002E              	CALL __DELAYX6 + 0x40a -2000
  72  002E              	ENDIF
  72  002E              ;# 72 "F:\Project\Carilex\E-Signal\i2c\200323-1\200323-1\BS45F3235_LIB.c" 1
  72  002E              	IF (2000 >= 0x40b) AND ((((2000-9)%0402h)/4+1)>256)
  72  002E              ;# 72 "F:\Project\Carilex\E-Signal\i2c\200323-1\200323-1\BS45F3235_LIB.c" 1
  72  002E              	MOV A,(2000-9)/0402h
  72  002E              ;# 72 "F:\Project\Carilex\E-Signal\i2c\200323-1\200323-1\BS45F3235_LIB.c" 1
  72  002E              	MOV _builtin_holtek_delay_2,A
  72  002E              ;# 72 "F:\Project\Carilex\E-Signal\i2c\200323-1\200323-1\BS45F3235_LIB.c" 1
  72  002E              	MOV A,0
  72  002E              ;# 72 "F:\Project\Carilex\E-Signal\i2c\200323-1\200323-1\BS45F3235_LIB.c" 1
  72  002E              	CALL __DELAYY5 +5- (((2000-9)%0402h)%6)
  72  002E              	ENDIF
  72  002E              ;# 72 "F:\Project\Carilex\E-Signal\i2c\200323-1\200323-1\BS45F3235_LIB.c" 1
  72  002E              	IF (2000 >= 0x40b) AND ((((2000-9)%0402h)/4+1)<=256)
  72  002E              ;# 72 "F:\Project\Carilex\E-Signal\i2c\200323-1\200323-1\BS45F3235_LIB.c" 1
  72  002E  0F01        	MOV A,(2000-9)/0402h
  72  002F              ;# 72 "F:\Project\Carilex\E-Signal\i2c\200323-1\200323-1\BS45F3235_LIB.c" 1
  72  002F  0080     E  	MOV _builtin_holtek_delay_2,A
  72  0030              ;# 72 "F:\Project\Carilex\E-Signal\i2c\200323-1\200323-1\BS45F3235_LIB.c" 1
  72  0030  0FF2        	MOV A,((2000-9)%0402h)/4+1
  72  0031              ;# 72 "F:\Project\Carilex\E-Signal\i2c\200323-1\200323-1\BS45F3235_LIB.c" 1
  72  0031  2000     E  	CALL __DELAYY3 +3-(((2000-9)%0402h)%4)
  72  0032              	ENDIF
  72  0032  2800     R  	jmp _L13
  72  0033  2800     R  	jmp $
  72  0034              _main endp
  72  0034              
  72  0034              @dummy endp
"File: BS45F3235_LIB.c  Assembler  Version HGASM0202      Page 8

  72  0034              
  72  0034              #line 72 "F:\Project\Carilex\E-Signal\i2c\200323-1\200323-1\BS45F3235_LIB.c"
  72  0034              #pragma debug scope 1 1
   6  0034              #line 6 "F:\Project\Carilex\E-Signal\i2c\200323-1\200323-1\BS45F3235_LIB.c"
   6  0034              public _buffer
   6  0000              @HCCINIT0 .section 'data'
   6  0000  0002[       _buffer	db 2 dup(0)
            00
            ]
   6  0002              #pragma debug array 42 8 2 1
   6  0002              #pragma debug array 42 8 2 1
   6  0002              #pragma debug variable 42 1 _buffer "buffer"
   6  0002              
   6  0000              @HCCINIT .section 'data'
   5  0000              #line 5 "F:\Project\Carilex\E-Signal\i2c\200323-1\200323-1\BS45F3235_LIB.c"
   5  0000              public _Flag1
   5  0002              @HCCINIT0 .section 'data'
   5  0002              _Flag1	db 0
   5  0003              #pragma debug struct_end
   5  0003              #pragma debug struct_end
   5  0003              #pragma debug variable 43 1 _Flag1 "Flag1"
   5  0003              
   5  0000              @HCCINIT .section 'data'
   5  0000              #pragma debug struct_end
   5  0000              #pragma debug struct_end
   5  0000              #pragma debug union_end
   5  0000              #pragma debug union_end
   5  0000              #pragma debug variable 45 1 ___status "__status" 1
   5  0000              #pragma debug struct_end
   5  0000              #pragma debug struct_end
   5  0000              #pragma debug union_end
   5  0000              #pragma debug union_end
   5  0000              #pragma debug variable 47 1 ___hircc "__hircc" 1
   5  0000              #pragma debug struct_end
   5  0000              #pragma debug struct_end
   5  0000              #pragma debug union_end
   5  0000              #pragma debug union_end
   5  0000              #pragma debug variable 49 1 ___pac "__pac" 1
   5  0000              #pragma debug struct_end
   5  0000              #pragma debug struct_end
   5  0000              #pragma debug union_end
   5  0000              #pragma debug union_end
   5  0000              #pragma debug variable 51 1 ___papu "__papu" 1
   5  0000              #pragma debug struct_end
   5  0000              #pragma debug struct_end
   5  0000              #pragma debug union_end
   5  0000              #pragma debug union_end
   5  0000              #pragma debug variable 53 1 ___utxr_rxr "__utxr_rxr" 1
   5  0000              #pragma debug struct_end
   5  0000              #pragma debug struct_end
   5  0000              #pragma debug union_end
   5  0000              #pragma debug union_end
   5  0000              #pragma debug variable 55 1 ___uusr "__uusr" 1
   5  0000              #pragma debug struct_end
   5  0000              #pragma debug struct_end
   5  0000              #pragma debug union_end
   5  0000              #pragma debug union_end
   5  0000              #pragma debug variable 57 1 ___pbc "__pbc" 1
   5  0000              #pragma debug struct_end
   5  0000              #pragma debug struct_end
"File: BS45F3235_LIB.c  Assembler  Version HGASM0202      Page 9

   5  0000              #pragma debug union_end
   5  0000              #pragma debug union_end
   5  0000              #pragma debug variable 59 1 ___pbpu "__pbpu" 1
  33  0000              #line 33 "F:\Project\Carilex\E-Signal\i2c\200323-1\200323-1\BS45F3235_LIB.c"
  33  0000              @code .section at 0 'code'
  33  0000  2800     R  	jmp _main_startup1
  33  0001              
  33  0001              extern _clear_ram:near
  33  0001              extern _initial:near
  33  0001              extern _wake_set:near
  33  0001              extern _ReadTOF_2:byte
  33  0001              extern _ReadTOF:near
  33  0001              extern _InitTOF_2:byte
  33  0001              extern _InitTOF:near
  33  0001              extern _doScan_2:byte
  33  0001              extern _doScan:near
  33  0001              
  33  0001              ; 
  33  0001              ; Generated by holtek-gcc v3.19, Mon Apr 06 10:41:26 2020
  33  0001              ; Rebuild 718
  33  0001              ; end of file


        0 Errors, 0