"File: I2C_SUB..c    Assembler  Version HGASM0202      Page 1


   1  0000              ; Generated by holtek-gcc v3.19, Mon Apr 06 10:41:27 2020
   2  0000              ; 
   3  0000              ; Configuration:
   4  0000              ;       without long instruction
   5  0000              ;       Single ROM, Multi-RAM
   6  0000              ;       bits_per_rom_unit:14
   7  0000              ;       with mp1
   8  0000              ;       with tbhp, address(0x1f)
   9  0000              ;          Use ret-const
  10  0000              ;       
  11  0000              ;       
  12  0000              ;       
  13  0000              ; use 'tabrdc' instead of 'tabrd'
  14  0000              ;       
  15  0000              
  16  0000              #pragma translator "holtek-gcc 4.6.4" "3.19" "build 20130711"
  17  0000              ; Rebuild 718
  18  0000              
  19  0000              ir equ [2]
  20  0000              mp equ [3]
  21  0000              sbp equ [7]
  22  0000              acc equ [5]
  23  0000              bp equ [4]
  24  0000              status equ [10]
  25  0000              c equ [10].0
  26  0000              ac equ [10].1
  27  0000              z equ [10].2
  28  0000              ov equ [10].3
  29  0000              intc equ [11]
  30  0000              
  31  0000              extern ra:byte
  32  0000              extern rb:byte
  33  0000              extern rc:byte
  34  0000              extern rd:byte
  35  0000              extern re:byte
  36  0000              extern rf:byte
  37  0000              extern rg:byte
  38  0000              extern rh:byte
  39  0000              extern _Crom2Prom:near
  40  0000              extern _Crom2PromNext:near
  41  0000              
  42  0000              RAMBANK 0 @HCCINIT, @HCCINIT0
  43  0000              
  44  0000              RAMBANK 0 @BITDATASEC, @BITDATASEC1
  45  0000              @HCCINIT	.section 'data'
  46  0000              @HCCINIT0	.section 'data'
  47  0000              @BITDATASEC	 .section 'data'
  48  0000              @BITDATASEC1	 .section 'data'
  49  0000              
  50  0000              #pragma debug scope 1 1
  51  0000              	extern __DELAY3:near
  52  0000              	extern __DELAYX3:near
  53  0000              	extern __DELAYX6:near
  54  0000              	extern __DELAYY5:near
  55  0000              	extern __DELAYY3:near
  56  0000              	extern _builtin_holtek_delay_2:byte
  57  0000              ___pac equ [21]
  58  0000              ___pbc equ [38]
  59  0000              ___pa equ [20]
"File: I2C_SUB..ASM  Assembler  Version HGASM0202      Page 2

  60  0000              ___pb equ [37]
  61  0000              public _i2cStart
  62  0000              #pragma debug scope 2 1

   9  0000              #line 9 "F:\Project\Carilex\E-Signal\i2c\200323-1\200323-1\I2C_SUB..c"
   9  0000              _i2cStart .section 'code'
   9  0000              _i2cStart proc
  10  0000              #line 10 "F:\Project\Carilex\E-Signal\i2c\200323-1\200323-1\I2C_SUB..c"
  10  0000  3615        	clr [21].4
  11  0001              #line 11 "F:\Project\Carilex\E-Signal\i2c\200323-1\200323-1\I2C_SUB..c"
  11  0001  34A6        	clr [38].1
  12  0002              #line 12 "F:\Project\Carilex\E-Signal\i2c\200323-1\200323-1\I2C_SUB..c"
  12  0002  3214        	set [20].4
  12  0003              ;# 12 "F:\Project\Carilex\E-Signal\i2c\200323-1\200323-1\I2C_SUB..c" 1
  12  0003              	IF 5>263690
  12  0003              ;# 12 "F:\Project\Carilex\E-Signal\i2c\200323-1\200323-1\I2C_SUB..c" 1
  12  0003              	ERRMESSAGE 'the value 5of the argument exceeds the maxinum 263690'
  12  0003              	ENDIF
  12  0003              ;# 12 "F:\Project\Carilex\E-Signal\i2c\200323-1\200323-1\I2C_SUB..c" 1
  12  0003              	IF 5<0
  12  0003              ;# 12 "F:\Project\Carilex\E-Signal\i2c\200323-1\200323-1\I2C_SUB..c" 1
  12  0003              	ERRMESSAGE 'the value 5 of the argument exceeds the mininum 0'
  12  0003              	ENDIF
  12  0003              ;# 12 "F:\Project\Carilex\E-Signal\i2c\200323-1\200323-1\I2C_SUB..c" 1
  12  0003              	IF 5==0
  12  0003              ;# 12 "F:\Project\Carilex\E-Signal\i2c\200323-1\200323-1\I2C_SUB..c" 1
  12  0003              	JMP $
  12  0003              	ENDIF
  12  0003              ;# 12 "F:\Project\Carilex\E-Signal\i2c\200323-1\200323-1\I2C_SUB..c" 1
  12  0003              	IF 5==1
  12  0003              ;# 12 "F:\Project\Carilex\E-Signal\i2c\200323-1\200323-1\I2C_SUB..c" 1
  12  0003              	NOP
  12  0003              	ENDIF
  12  0003              ;# 12 "F:\Project\Carilex\E-Signal\i2c\200323-1\200323-1\I2C_SUB..c" 1
  12  0003              	IF 5==2
  12  0003              ;# 12 "F:\Project\Carilex\E-Signal\i2c\200323-1\200323-1\I2C_SUB..c" 1
  12  0003              	NOP
  12  0003              ;# 12 "F:\Project\Carilex\E-Signal\i2c\200323-1\200323-1\I2C_SUB..c" 1
  12  0003              	NOP
  12  0003              	ENDIF
  12  0003              ;# 12 "F:\Project\Carilex\E-Signal\i2c\200323-1\200323-1\I2C_SUB..c" 1
  12  0003              	IF 5==3
  12  0003              ;# 12 "F:\Project\Carilex\E-Signal\i2c\200323-1\200323-1\I2C_SUB..c" 1
  12  0003              	NOP
  12  0003              ;# 12 "F:\Project\Carilex\E-Signal\i2c\200323-1\200323-1\I2C_SUB..c" 1
  12  0003              	NOP
  12  0003              ;# 12 "F:\Project\Carilex\E-Signal\i2c\200323-1\200323-1\I2C_SUB..c" 1
  12  0003              	NOP
  12  0003              	ENDIF
  12  0003              ;# 12 "F:\Project\Carilex\E-Signal\i2c\200323-1\200323-1\I2C_SUB..c" 1
  12  0003              	IF (5<8) AND (5>3)
  12  0003              ;# 12 "F:\Project\Carilex\E-Signal\i2c\200323-1\200323-1\I2C_SUB..c" 1
  12  0003  2000     E  	CALL __DELAY3 + 7 -5
  12  0004              	ENDIF
  12  0004              ;# 12 "F:\Project\Carilex\E-Signal\i2c\200323-1\200323-1\I2C_SUB..c" 1
  12  0004              	IF (5< 0404h) AND (5>7)
  12  0004              ;# 12 "F:\Project\Carilex\E-Signal\i2c\200323-1\200323-1\I2C_SUB..c" 1
  12  0004              	MOV A,5/4-1
  12  0004              ;# 12 "F:\Project\Carilex\E-Signal\i2c\200323-1\200323-1\I2C_SUB..c" 1
  12  0004              	CALL __DELAYX3 + 3 -(5 MOD 4)
"File: I2C_SUB..c    Assembler  Version HGASM0202      Page 3

  12  0004              	ENDIF
  12  0004              ;# 12 "F:\Project\Carilex\E-Signal\i2c\200323-1\200323-1\I2C_SUB..c" 1
  12  0004              	IF (5< 0x40B) AND (5> 0403h)
  12  0004              ;# 12 "F:\Project\Carilex\E-Signal\i2c\200323-1\200323-1\I2C_SUB..c" 1
  12  0004              	MOV A,0 
  12  0004              ;# 12 "F:\Project\Carilex\E-Signal\i2c\200323-1\200323-1\I2C_SUB..c" 1
  12  0004              	CALL __DELAYX6 + 0x40a -5
  12  0004              	ENDIF
  12  0004              ;# 12 "F:\Project\Carilex\E-Signal\i2c\200323-1\200323-1\I2C_SUB..c" 1
  12  0004              	IF (5 >= 0x40b) AND ((((5-9)%0402h)/4+1)>256)
  12  0004              ;# 12 "F:\Project\Carilex\E-Signal\i2c\200323-1\200323-1\I2C_SUB..c" 1
  12  0004              	MOV A,(5-9)/0402h
  12  0004              ;# 12 "F:\Project\Carilex\E-Signal\i2c\200323-1\200323-1\I2C_SUB..c" 1
  12  0004              	MOV _builtin_holtek_delay_2,A
  12  0004              ;# 12 "F:\Project\Carilex\E-Signal\i2c\200323-1\200323-1\I2C_SUB..c" 1
  12  0004              	MOV A,0
  12  0004              ;# 12 "F:\Project\Carilex\E-Signal\i2c\200323-1\200323-1\I2C_SUB..c" 1
  12  0004              	CALL __DELAYY5 +5- (((5-9)%0402h)%6)
  12  0004              	ENDIF
  12  0004              ;# 12 "F:\Project\Carilex\E-Signal\i2c\200323-1\200323-1\I2C_SUB..c" 1
  12  0004              	IF (5 >= 0x40b) AND ((((5-9)%0402h)/4+1)<=256)
  12  0004              ;# 12 "F:\Project\Carilex\E-Signal\i2c\200323-1\200323-1\I2C_SUB..c" 1
  12  0004              	MOV A,(5-9)/0402h
  12  0004              ;# 12 "F:\Project\Carilex\E-Signal\i2c\200323-1\200323-1\I2C_SUB..c" 1
  12  0004              	MOV _builtin_holtek_delay_2,A
  12  0004              ;# 12 "F:\Project\Carilex\E-Signal\i2c\200323-1\200323-1\I2C_SUB..c" 1
  12  0004              	MOV A,((5-9)%0402h)/4+1
  12  0004              ;# 12 "F:\Project\Carilex\E-Signal\i2c\200323-1\200323-1\I2C_SUB..c" 1
  12  0004              	CALL __DELAYY3 +3-(((5-9)%0402h)%4)
  12  0004              	ENDIF
  13  0004              #line 13 "F:\Project\Carilex\E-Signal\i2c\200323-1\200323-1\I2C_SUB..c"
  13  0004  30A5        	set [37].1
  13  0005              ;# 13 "F:\Project\Carilex\E-Signal\i2c\200323-1\200323-1\I2C_SUB..c" 1
  13  0005              	IF 5>263690
  13  0005              ;# 13 "F:\Project\Carilex\E-Signal\i2c\200323-1\200323-1\I2C_SUB..c" 1
  13  0005              	ERRMESSAGE 'the value 5of the argument exceeds the maxinum 263690'
  13  0005              	ENDIF
  13  0005              ;# 13 "F:\Project\Carilex\E-Signal\i2c\200323-1\200323-1\I2C_SUB..c" 1
  13  0005              	IF 5<0
  13  0005              ;# 13 "F:\Project\Carilex\E-Signal\i2c\200323-1\200323-1\I2C_SUB..c" 1
  13  0005              	ERRMESSAGE 'the value 5 of the argument exceeds the mininum 0'
  13  0005              	ENDIF
  13  0005              ;# 13 "F:\Project\Carilex\E-Signal\i2c\200323-1\200323-1\I2C_SUB..c" 1
  13  0005              	IF 5==0
  13  0005              ;# 13 "F:\Project\Carilex\E-Signal\i2c\200323-1\200323-1\I2C_SUB..c" 1
  13  0005              	JMP $
  13  0005              	ENDIF
  13  0005              ;# 13 "F:\Project\Carilex\E-Signal\i2c\200323-1\200323-1\I2C_SUB..c" 1
  13  0005              	IF 5==1
  13  0005              ;# 13 "F:\Project\Carilex\E-Signal\i2c\200323-1\200323-1\I2C_SUB..c" 1
  13  0005              	NOP
  13  0005              	ENDIF
  13  0005              ;# 13 "F:\Project\Carilex\E-Signal\i2c\200323-1\200323-1\I2C_SUB..c" 1
  13  0005              	IF 5==2
  13  0005              ;# 13 "F:\Project\Carilex\E-Signal\i2c\200323-1\200323-1\I2C_SUB..c" 1
  13  0005              	NOP
  13  0005              ;# 13 "F:\Project\Carilex\E-Signal\i2c\200323-1\200323-1\I2C_SUB..c" 1
  13  0005              	NOP
  13  0005              	ENDIF
  13  0005              ;# 13 "F:\Project\Carilex\E-Signal\i2c\200323-1\200323-1\I2C_SUB..c" 1
"File: I2C_SUB..c    Assembler  Version HGASM0202      Page 4

  13  0005              	IF 5==3
  13  0005              ;# 13 "F:\Project\Carilex\E-Signal\i2c\200323-1\200323-1\I2C_SUB..c" 1
  13  0005              	NOP
  13  0005              ;# 13 "F:\Project\Carilex\E-Signal\i2c\200323-1\200323-1\I2C_SUB..c" 1
  13  0005              	NOP
  13  0005              ;# 13 "F:\Project\Carilex\E-Signal\i2c\200323-1\200323-1\I2C_SUB..c" 1
  13  0005              	NOP
  13  0005              	ENDIF
  13  0005              ;# 13 "F:\Project\Carilex\E-Signal\i2c\200323-1\200323-1\I2C_SUB..c" 1
  13  0005              	IF (5<8) AND (5>3)
  13  0005              ;# 13 "F:\Project\Carilex\E-Signal\i2c\200323-1\200323-1\I2C_SUB..c" 1
  13  0005  2000     E  	CALL __DELAY3 + 7 -5
  13  0006              	ENDIF
  13  0006              ;# 13 "F:\Project\Carilex\E-Signal\i2c\200323-1\200323-1\I2C_SUB..c" 1
  13  0006              	IF (5< 0404h) AND (5>7)
  13  0006              ;# 13 "F:\Project\Carilex\E-Signal\i2c\200323-1\200323-1\I2C_SUB..c" 1
  13  0006              	MOV A,5/4-1
  13  0006              ;# 13 "F:\Project\Carilex\E-Signal\i2c\200323-1\200323-1\I2C_SUB..c" 1
  13  0006              	CALL __DELAYX3 + 3 -(5 MOD 4)
  13  0006              	ENDIF
  13  0006              ;# 13 "F:\Project\Carilex\E-Signal\i2c\200323-1\200323-1\I2C_SUB..c" 1
  13  0006              	IF (5< 0x40B) AND (5> 0403h)
  13  0006              ;# 13 "F:\Project\Carilex\E-Signal\i2c\200323-1\200323-1\I2C_SUB..c" 1
  13  0006              	MOV A,0 
  13  0006              ;# 13 "F:\Project\Carilex\E-Signal\i2c\200323-1\200323-1\I2C_SUB..c" 1
  13  0006              	CALL __DELAYX6 + 0x40a -5
  13  0006              	ENDIF
  13  0006              ;# 13 "F:\Project\Carilex\E-Signal\i2c\200323-1\200323-1\I2C_SUB..c" 1
  13  0006              	IF (5 >= 0x40b) AND ((((5-9)%0402h)/4+1)>256)
  13  0006              ;# 13 "F:\Project\Carilex\E-Signal\i2c\200323-1\200323-1\I2C_SUB..c" 1
  13  0006              	MOV A,(5-9)/0402h
  13  0006              ;# 13 "F:\Project\Carilex\E-Signal\i2c\200323-1\200323-1\I2C_SUB..c" 1
  13  0006              	MOV _builtin_holtek_delay_2,A
  13  0006              ;# 13 "F:\Project\Carilex\E-Signal\i2c\200323-1\200323-1\I2C_SUB..c" 1
  13  0006              	MOV A,0
  13  0006              ;# 13 "F:\Project\Carilex\E-Signal\i2c\200323-1\200323-1\I2C_SUB..c" 1
  13  0006              	CALL __DELAYY5 +5- (((5-9)%0402h)%6)
  13  0006              	ENDIF
  13  0006              ;# 13 "F:\Project\Carilex\E-Signal\i2c\200323-1\200323-1\I2C_SUB..c" 1
  13  0006              	IF (5 >= 0x40b) AND ((((5-9)%0402h)/4+1)<=256)
  13  0006              ;# 13 "F:\Project\Carilex\E-Signal\i2c\200323-1\200323-1\I2C_SUB..c" 1
  13  0006              	MOV A,(5-9)/0402h
  13  0006              ;# 13 "F:\Project\Carilex\E-Signal\i2c\200323-1\200323-1\I2C_SUB..c" 1
  13  0006              	MOV _builtin_holtek_delay_2,A
  13  0006              ;# 13 "F:\Project\Carilex\E-Signal\i2c\200323-1\200323-1\I2C_SUB..c" 1
  13  0006              	MOV A,((5-9)%0402h)/4+1
  13  0006              ;# 13 "F:\Project\Carilex\E-Signal\i2c\200323-1\200323-1\I2C_SUB..c" 1
  13  0006              	CALL __DELAYY3 +3-(((5-9)%0402h)%4)
  13  0006              	ENDIF
  14  0006              #line 14 "F:\Project\Carilex\E-Signal\i2c\200323-1\200323-1\I2C_SUB..c"
  14  0006  3614        	clr [20].4
  14  0007              ;# 14 "F:\Project\Carilex\E-Signal\i2c\200323-1\200323-1\I2C_SUB..c" 1
  14  0007              	IF 5>263690
  14  0007              ;# 14 "F:\Project\Carilex\E-Signal\i2c\200323-1\200323-1\I2C_SUB..c" 1
  14  0007              	ERRMESSAGE 'the value 5of the argument exceeds the maxinum 263690'
  14  0007              	ENDIF
  14  0007              ;# 14 "F:\Project\Carilex\E-Signal\i2c\200323-1\200323-1\I2C_SUB..c" 1
  14  0007              	IF 5<0
  14  0007              ;# 14 "F:\Project\Carilex\E-Signal\i2c\200323-1\200323-1\I2C_SUB..c" 1
  14  0007              	ERRMESSAGE 'the value 5 of the argument exceeds the mininum 0'
"File: I2C_SUB..c    Assembler  Version HGASM0202      Page 5

  14  0007              	ENDIF
  14  0007              ;# 14 "F:\Project\Carilex\E-Signal\i2c\200323-1\200323-1\I2C_SUB..c" 1
  14  0007              	IF 5==0
  14  0007              ;# 14 "F:\Project\Carilex\E-Signal\i2c\200323-1\200323-1\I2C_SUB..c" 1
  14  0007              	JMP $
  14  0007              	ENDIF
  14  0007              ;# 14 "F:\Project\Carilex\E-Signal\i2c\200323-1\200323-1\I2C_SUB..c" 1
  14  0007              	IF 5==1
  14  0007              ;# 14 "F:\Project\Carilex\E-Signal\i2c\200323-1\200323-1\I2C_SUB..c" 1
  14  0007              	NOP
  14  0007              	ENDIF
  14  0007              ;# 14 "F:\Project\Carilex\E-Signal\i2c\200323-1\200323-1\I2C_SUB..c" 1
  14  0007              	IF 5==2
  14  0007              ;# 14 "F:\Project\Carilex\E-Signal\i2c\200323-1\200323-1\I2C_SUB..c" 1
  14  0007              	NOP
  14  0007              ;# 14 "F:\Project\Carilex\E-Signal\i2c\200323-1\200323-1\I2C_SUB..c" 1
  14  0007              	NOP
  14  0007              	ENDIF
  14  0007              ;# 14 "F:\Project\Carilex\E-Signal\i2c\200323-1\200323-1\I2C_SUB..c" 1
  14  0007              	IF 5==3
  14  0007              ;# 14 "F:\Project\Carilex\E-Signal\i2c\200323-1\200323-1\I2C_SUB..c" 1
  14  0007              	NOP
  14  0007              ;# 14 "F:\Project\Carilex\E-Signal\i2c\200323-1\200323-1\I2C_SUB..c" 1
  14  0007              	NOP
  14  0007              ;# 14 "F:\Project\Carilex\E-Signal\i2c\200323-1\200323-1\I2C_SUB..c" 1
  14  0007              	NOP
  14  0007              	ENDIF
  14  0007              ;# 14 "F:\Project\Carilex\E-Signal\i2c\200323-1\200323-1\I2C_SUB..c" 1
  14  0007              	IF (5<8) AND (5>3)
  14  0007              ;# 14 "F:\Project\Carilex\E-Signal\i2c\200323-1\200323-1\I2C_SUB..c" 1
  14  0007  2000     E  	CALL __DELAY3 + 7 -5
  14  0008              	ENDIF
  14  0008              ;# 14 "F:\Project\Carilex\E-Signal\i2c\200323-1\200323-1\I2C_SUB..c" 1
  14  0008              	IF (5< 0404h) AND (5>7)
  14  0008              ;# 14 "F:\Project\Carilex\E-Signal\i2c\200323-1\200323-1\I2C_SUB..c" 1
  14  0008              	MOV A,5/4-1
  14  0008              ;# 14 "F:\Project\Carilex\E-Signal\i2c\200323-1\200323-1\I2C_SUB..c" 1
  14  0008              	CALL __DELAYX3 + 3 -(5 MOD 4)
  14  0008              	ENDIF
  14  0008              ;# 14 "F:\Project\Carilex\E-Signal\i2c\200323-1\200323-1\I2C_SUB..c" 1
  14  0008              	IF (5< 0x40B) AND (5> 0403h)
  14  0008              ;# 14 "F:\Project\Carilex\E-Signal\i2c\200323-1\200323-1\I2C_SUB..c" 1
  14  0008              	MOV A,0 
  14  0008              ;# 14 "F:\Project\Carilex\E-Signal\i2c\200323-1\200323-1\I2C_SUB..c" 1
  14  0008              	CALL __DELAYX6 + 0x40a -5
  14  0008              	ENDIF
  14  0008              ;# 14 "F:\Project\Carilex\E-Signal\i2c\200323-1\200323-1\I2C_SUB..c" 1
  14  0008              	IF (5 >= 0x40b) AND ((((5-9)%0402h)/4+1)>256)
  14  0008              ;# 14 "F:\Project\Carilex\E-Signal\i2c\200323-1\200323-1\I2C_SUB..c" 1
  14  0008              	MOV A,(5-9)/0402h
  14  0008              ;# 14 "F:\Project\Carilex\E-Signal\i2c\200323-1\200323-1\I2C_SUB..c" 1
  14  0008              	MOV _builtin_holtek_delay_2,A
  14  0008              ;# 14 "F:\Project\Carilex\E-Signal\i2c\200323-1\200323-1\I2C_SUB..c" 1
  14  0008              	MOV A,0
  14  0008              ;# 14 "F:\Project\Carilex\E-Signal\i2c\200323-1\200323-1\I2C_SUB..c" 1
  14  0008              	CALL __DELAYY5 +5- (((5-9)%0402h)%6)
  14  0008              	ENDIF
  14  0008              ;# 14 "F:\Project\Carilex\E-Signal\i2c\200323-1\200323-1\I2C_SUB..c" 1
  14  0008              	IF (5 >= 0x40b) AND ((((5-9)%0402h)/4+1)<=256)
  14  0008              ;# 14 "F:\Project\Carilex\E-Signal\i2c\200323-1\200323-1\I2C_SUB..c" 1
"File: I2C_SUB..c    Assembler  Version HGASM0202      Page 6

  14  0008              	MOV A,(5-9)/0402h
  14  0008              ;# 14 "F:\Project\Carilex\E-Signal\i2c\200323-1\200323-1\I2C_SUB..c" 1
  14  0008              	MOV _builtin_holtek_delay_2,A
  14  0008              ;# 14 "F:\Project\Carilex\E-Signal\i2c\200323-1\200323-1\I2C_SUB..c" 1
  14  0008              	MOV A,((5-9)%0402h)/4+1
  14  0008              ;# 14 "F:\Project\Carilex\E-Signal\i2c\200323-1\200323-1\I2C_SUB..c" 1
  14  0008              	CALL __DELAYY3 +3-(((5-9)%0402h)%4)
  14  0008              	ENDIF
  15  0008              #line 15 "F:\Project\Carilex\E-Signal\i2c\200323-1\200323-1\I2C_SUB..c"
  15  0008  34A5        	clr [37].1
  15  0009              ;# 15 "F:\Project\Carilex\E-Signal\i2c\200323-1\200323-1\I2C_SUB..c" 1
  15  0009              	IF 5>263690
  15  0009              ;# 15 "F:\Project\Carilex\E-Signal\i2c\200323-1\200323-1\I2C_SUB..c" 1
  15  0009              	ERRMESSAGE 'the value 5of the argument exceeds the maxinum 263690'
  15  0009              	ENDIF
  15  0009              ;# 15 "F:\Project\Carilex\E-Signal\i2c\200323-1\200323-1\I2C_SUB..c" 1
  15  0009              	IF 5<0
  15  0009              ;# 15 "F:\Project\Carilex\E-Signal\i2c\200323-1\200323-1\I2C_SUB..c" 1
  15  0009              	ERRMESSAGE 'the value 5 of the argument exceeds the mininum 0'
  15  0009              	ENDIF
  15  0009              ;# 15 "F:\Project\Carilex\E-Signal\i2c\200323-1\200323-1\I2C_SUB..c" 1
  15  0009              	IF 5==0
  15  0009              ;# 15 "F:\Project\Carilex\E-Signal\i2c\200323-1\200323-1\I2C_SUB..c" 1
  15  0009              	JMP $
  15  0009              	ENDIF
  15  0009              ;# 15 "F:\Project\Carilex\E-Signal\i2c\200323-1\200323-1\I2C_SUB..c" 1
  15  0009              	IF 5==1
  15  0009              ;# 15 "F:\Project\Carilex\E-Signal\i2c\200323-1\200323-1\I2C_SUB..c" 1
  15  0009              	NOP
  15  0009              	ENDIF
  15  0009              ;# 15 "F:\Project\Carilex\E-Signal\i2c\200323-1\200323-1\I2C_SUB..c" 1
  15  0009              	IF 5==2
  15  0009              ;# 15 "F:\Project\Carilex\E-Signal\i2c\200323-1\200323-1\I2C_SUB..c" 1
  15  0009              	NOP
  15  0009              ;# 15 "F:\Project\Carilex\E-Signal\i2c\200323-1\200323-1\I2C_SUB..c" 1
  15  0009              	NOP
  15  0009              	ENDIF
  15  0009              ;# 15 "F:\Project\Carilex\E-Signal\i2c\200323-1\200323-1\I2C_SUB..c" 1
  15  0009              	IF 5==3
  15  0009              ;# 15 "F:\Project\Carilex\E-Signal\i2c\200323-1\200323-1\I2C_SUB..c" 1
  15  0009              	NOP
  15  0009              ;# 15 "F:\Project\Carilex\E-Signal\i2c\200323-1\200323-1\I2C_SUB..c" 1
  15  0009              	NOP
  15  0009              ;# 15 "F:\Project\Carilex\E-Signal\i2c\200323-1\200323-1\I2C_SUB..c" 1
  15  0009              	NOP
  15  0009              	ENDIF
  15  0009              ;# 15 "F:\Project\Carilex\E-Signal\i2c\200323-1\200323-1\I2C_SUB..c" 1
  15  0009              	IF (5<8) AND (5>3)
  15  0009              ;# 15 "F:\Project\Carilex\E-Signal\i2c\200323-1\200323-1\I2C_SUB..c" 1
  15  0009  2000     E  	CALL __DELAY3 + 7 -5
  15  000A              	ENDIF
  15  000A              ;# 15 "F:\Project\Carilex\E-Signal\i2c\200323-1\200323-1\I2C_SUB..c" 1
  15  000A              	IF (5< 0404h) AND (5>7)
  15  000A              ;# 15 "F:\Project\Carilex\E-Signal\i2c\200323-1\200323-1\I2C_SUB..c" 1
  15  000A              	MOV A,5/4-1
  15  000A              ;# 15 "F:\Project\Carilex\E-Signal\i2c\200323-1\200323-1\I2C_SUB..c" 1
  15  000A              	CALL __DELAYX3 + 3 -(5 MOD 4)
  15  000A              	ENDIF
  15  000A              ;# 15 "F:\Project\Carilex\E-Signal\i2c\200323-1\200323-1\I2C_SUB..c" 1
  15  000A              	IF (5< 0x40B) AND (5> 0403h)
"File: I2C_SUB..c    Assembler  Version HGASM0202      Page 7

  15  000A              ;# 15 "F:\Project\Carilex\E-Signal\i2c\200323-1\200323-1\I2C_SUB..c" 1
  15  000A              	MOV A,0 
  15  000A              ;# 15 "F:\Project\Carilex\E-Signal\i2c\200323-1\200323-1\I2C_SUB..c" 1
  15  000A              	CALL __DELAYX6 + 0x40a -5
  15  000A              	ENDIF
  15  000A              ;# 15 "F:\Project\Carilex\E-Signal\i2c\200323-1\200323-1\I2C_SUB..c" 1
  15  000A              	IF (5 >= 0x40b) AND ((((5-9)%0402h)/4+1)>256)
  15  000A              ;# 15 "F:\Project\Carilex\E-Signal\i2c\200323-1\200323-1\I2C_SUB..c" 1
  15  000A              	MOV A,(5-9)/0402h
  15  000A              ;# 15 "F:\Project\Carilex\E-Signal\i2c\200323-1\200323-1\I2C_SUB..c" 1
  15  000A              	MOV _builtin_holtek_delay_2,A
  15  000A              ;# 15 "F:\Project\Carilex\E-Signal\i2c\200323-1\200323-1\I2C_SUB..c" 1
  15  000A              	MOV A,0
  15  000A              ;# 15 "F:\Project\Carilex\E-Signal\i2c\200323-1\200323-1\I2C_SUB..c" 1
  15  000A              	CALL __DELAYY5 +5- (((5-9)%0402h)%6)
  15  000A              	ENDIF
  15  000A              ;# 15 "F:\Project\Carilex\E-Signal\i2c\200323-1\200323-1\I2C_SUB..c" 1
  15  000A              	IF (5 >= 0x40b) AND ((((5-9)%0402h)/4+1)<=256)
  15  000A              ;# 15 "F:\Project\Carilex\E-Signal\i2c\200323-1\200323-1\I2C_SUB..c" 1
  15  000A              	MOV A,(5-9)/0402h
  15  000A              ;# 15 "F:\Project\Carilex\E-Signal\i2c\200323-1\200323-1\I2C_SUB..c" 1
  15  000A              	MOV _builtin_holtek_delay_2,A
  15  000A              ;# 15 "F:\Project\Carilex\E-Signal\i2c\200323-1\200323-1\I2C_SUB..c" 1
  15  000A              	MOV A,((5-9)%0402h)/4+1
  15  000A              ;# 15 "F:\Project\Carilex\E-Signal\i2c\200323-1\200323-1\I2C_SUB..c" 1
  15  000A              	CALL __DELAYY3 +3-(((5-9)%0402h)%4)
  15  000A              	ENDIF
  15  000A  0003        	ret
  15  000B              _i2cStart endp
  15  000B              #line 15 "F:\Project\Carilex\E-Signal\i2c\200323-1\200323-1\I2C_SUB..c"
  15  000B              #pragma debug scope 1 1
  15  000B              public _i2cStop
  15  000B              #pragma debug scope 3 1
  22  000B              #line 22 "F:\Project\Carilex\E-Signal\i2c\200323-1\200323-1\I2C_SUB..c"
  22  0000              _i2cStop .section 'code'
  22  0000              _i2cStop proc
  23  0000              #line 23 "F:\Project\Carilex\E-Signal\i2c\200323-1\200323-1\I2C_SUB..c"
  23  0000  3615        	clr [21].4
  24  0001              #line 24 "F:\Project\Carilex\E-Signal\i2c\200323-1\200323-1\I2C_SUB..c"
  24  0001  34A6        	clr [38].1
  25  0002              #line 25 "F:\Project\Carilex\E-Signal\i2c\200323-1\200323-1\I2C_SUB..c"
  25  0002  3614        	clr [20].4
  25  0003              ;# 25 "F:\Project\Carilex\E-Signal\i2c\200323-1\200323-1\I2C_SUB..c" 1
  25  0003              	IF 5>263690
  25  0003              ;# 25 "F:\Project\Carilex\E-Signal\i2c\200323-1\200323-1\I2C_SUB..c" 1
  25  0003              	ERRMESSAGE 'the value 5of the argument exceeds the maxinum 263690'
  25  0003              	ENDIF
  25  0003              ;# 25 "F:\Project\Carilex\E-Signal\i2c\200323-1\200323-1\I2C_SUB..c" 1
  25  0003              	IF 5<0
  25  0003              ;# 25 "F:\Project\Carilex\E-Signal\i2c\200323-1\200323-1\I2C_SUB..c" 1
  25  0003              	ERRMESSAGE 'the value 5 of the argument exceeds the mininum 0'
  25  0003              	ENDIF
  25  0003              ;# 25 "F:\Project\Carilex\E-Signal\i2c\200323-1\200323-1\I2C_SUB..c" 1
  25  0003              	IF 5==0
  25  0003              ;# 25 "F:\Project\Carilex\E-Signal\i2c\200323-1\200323-1\I2C_SUB..c" 1
  25  0003              	JMP $
  25  0003              	ENDIF
  25  0003              ;# 25 "F:\Project\Carilex\E-Signal\i2c\200323-1\200323-1\I2C_SUB..c" 1
  25  0003              	IF 5==1
  25  0003              ;# 25 "F:\Project\Carilex\E-Signal\i2c\200323-1\200323-1\I2C_SUB..c" 1
"File: I2C_SUB..c    Assembler  Version HGASM0202      Page 8

  25  0003              	NOP
  25  0003              	ENDIF
  25  0003              ;# 25 "F:\Project\Carilex\E-Signal\i2c\200323-1\200323-1\I2C_SUB..c" 1
  25  0003              	IF 5==2
  25  0003              ;# 25 "F:\Project\Carilex\E-Signal\i2c\200323-1\200323-1\I2C_SUB..c" 1
  25  0003              	NOP
  25  0003              ;# 25 "F:\Project\Carilex\E-Signal\i2c\200323-1\200323-1\I2C_SUB..c" 1
  25  0003              	NOP
  25  0003              	ENDIF
  25  0003              ;# 25 "F:\Project\Carilex\E-Signal\i2c\200323-1\200323-1\I2C_SUB..c" 1
  25  0003              	IF 5==3
  25  0003              ;# 25 "F:\Project\Carilex\E-Signal\i2c\200323-1\200323-1\I2C_SUB..c" 1
  25  0003              	NOP
  25  0003              ;# 25 "F:\Project\Carilex\E-Signal\i2c\200323-1\200323-1\I2C_SUB..c" 1
  25  0003              	NOP
  25  0003              ;# 25 "F:\Project\Carilex\E-Signal\i2c\200323-1\200323-1\I2C_SUB..c" 1
  25  0003              	NOP
  25  0003              	ENDIF
  25  0003              ;# 25 "F:\Project\Carilex\E-Signal\i2c\200323-1\200323-1\I2C_SUB..c" 1
  25  0003              	IF (5<8) AND (5>3)
  25  0003              ;# 25 "F:\Project\Carilex\E-Signal\i2c\200323-1\200323-1\I2C_SUB..c" 1
  25  0003  2000     E  	CALL __DELAY3 + 7 -5
  25  0004              	ENDIF
  25  0004              ;# 25 "F:\Project\Carilex\E-Signal\i2c\200323-1\200323-1\I2C_SUB..c" 1
  25  0004              	IF (5< 0404h) AND (5>7)
  25  0004              ;# 25 "F:\Project\Carilex\E-Signal\i2c\200323-1\200323-1\I2C_SUB..c" 1
  25  0004              	MOV A,5/4-1
  25  0004              ;# 25 "F:\Project\Carilex\E-Signal\i2c\200323-1\200323-1\I2C_SUB..c" 1
  25  0004              	CALL __DELAYX3 + 3 -(5 MOD 4)
  25  0004              	ENDIF
  25  0004              ;# 25 "F:\Project\Carilex\E-Signal\i2c\200323-1\200323-1\I2C_SUB..c" 1
  25  0004              	IF (5< 0x40B) AND (5> 0403h)
  25  0004              ;# 25 "F:\Project\Carilex\E-Signal\i2c\200323-1\200323-1\I2C_SUB..c" 1
  25  0004              	MOV A,0 
  25  0004              ;# 25 "F:\Project\Carilex\E-Signal\i2c\200323-1\200323-1\I2C_SUB..c" 1
  25  0004              	CALL __DELAYX6 + 0x40a -5
  25  0004              	ENDIF
  25  0004              ;# 25 "F:\Project\Carilex\E-Signal\i2c\200323-1\200323-1\I2C_SUB..c" 1
  25  0004              	IF (5 >= 0x40b) AND ((((5-9)%0402h)/4+1)>256)
  25  0004              ;# 25 "F:\Project\Carilex\E-Signal\i2c\200323-1\200323-1\I2C_SUB..c" 1
  25  0004              	MOV A,(5-9)/0402h
  25  0004              ;# 25 "F:\Project\Carilex\E-Signal\i2c\200323-1\200323-1\I2C_SUB..c" 1
  25  0004              	MOV _builtin_holtek_delay_2,A
  25  0004              ;# 25 "F:\Project\Carilex\E-Signal\i2c\200323-1\200323-1\I2C_SUB..c" 1
  25  0004              	MOV A,0
  25  0004              ;# 25 "F:\Project\Carilex\E-Signal\i2c\200323-1\200323-1\I2C_SUB..c" 1
  25  0004              	CALL __DELAYY5 +5- (((5-9)%0402h)%6)
  25  0004              	ENDIF
  25  0004              ;# 25 "F:\Project\Carilex\E-Signal\i2c\200323-1\200323-1\I2C_SUB..c" 1
  25  0004              	IF (5 >= 0x40b) AND ((((5-9)%0402h)/4+1)<=256)
  25  0004              ;# 25 "F:\Project\Carilex\E-Signal\i2c\200323-1\200323-1\I2C_SUB..c" 1
  25  0004              	MOV A,(5-9)/0402h
  25  0004              ;# 25 "F:\Project\Carilex\E-Signal\i2c\200323-1\200323-1\I2C_SUB..c" 1
  25  0004              	MOV _builtin_holtek_delay_2,A
  25  0004              ;# 25 "F:\Project\Carilex\E-Signal\i2c\200323-1\200323-1\I2C_SUB..c" 1
  25  0004              	MOV A,((5-9)%0402h)/4+1
  25  0004              ;# 25 "F:\Project\Carilex\E-Signal\i2c\200323-1\200323-1\I2C_SUB..c" 1
  25  0004              	CALL __DELAYY3 +3-(((5-9)%0402h)%4)
  25  0004              	ENDIF
  26  0004              #line 26 "F:\Project\Carilex\E-Signal\i2c\200323-1\200323-1\I2C_SUB..c"
"File: I2C_SUB..c    Assembler  Version HGASM0202      Page 9

  26  0004  30A5        	set [37].1
  26  0005              ;# 26 "F:\Project\Carilex\E-Signal\i2c\200323-1\200323-1\I2C_SUB..c" 1
  26  0005              	IF 5>263690
  26  0005              ;# 26 "F:\Project\Carilex\E-Signal\i2c\200323-1\200323-1\I2C_SUB..c" 1
  26  0005              	ERRMESSAGE 'the value 5of the argument exceeds the maxinum 263690'
  26  0005              	ENDIF
  26  0005              ;# 26 "F:\Project\Carilex\E-Signal\i2c\200323-1\200323-1\I2C_SUB..c" 1
  26  0005              	IF 5<0
  26  0005              ;# 26 "F:\Project\Carilex\E-Signal\i2c\200323-1\200323-1\I2C_SUB..c" 1
  26  0005              	ERRMESSAGE 'the value 5 of the argument exceeds the mininum 0'
  26  0005              	ENDIF
  26  0005              ;# 26 "F:\Project\Carilex\E-Signal\i2c\200323-1\200323-1\I2C_SUB..c" 1
  26  0005              	IF 5==0
  26  0005              ;# 26 "F:\Project\Carilex\E-Signal\i2c\200323-1\200323-1\I2C_SUB..c" 1
  26  0005              	JMP $
  26  0005              	ENDIF
  26  0005              ;# 26 "F:\Project\Carilex\E-Signal\i2c\200323-1\200323-1\I2C_SUB..c" 1
  26  0005              	IF 5==1
  26  0005              ;# 26 "F:\Project\Carilex\E-Signal\i2c\200323-1\200323-1\I2C_SUB..c" 1
  26  0005              	NOP
  26  0005              	ENDIF
  26  0005              ;# 26 "F:\Project\Carilex\E-Signal\i2c\200323-1\200323-1\I2C_SUB..c" 1
  26  0005              	IF 5==2
  26  0005              ;# 26 "F:\Project\Carilex\E-Signal\i2c\200323-1\200323-1\I2C_SUB..c" 1
  26  0005              	NOP
  26  0005              ;# 26 "F:\Project\Carilex\E-Signal\i2c\200323-1\200323-1\I2C_SUB..c" 1
  26  0005              	NOP
  26  0005              	ENDIF
  26  0005              ;# 26 "F:\Project\Carilex\E-Signal\i2c\200323-1\200323-1\I2C_SUB..c" 1
  26  0005              	IF 5==3
  26  0005              ;# 26 "F:\Project\Carilex\E-Signal\i2c\200323-1\200323-1\I2C_SUB..c" 1
  26  0005              	NOP
  26  0005              ;# 26 "F:\Project\Carilex\E-Signal\i2c\200323-1\200323-1\I2C_SUB..c" 1
  26  0005              	NOP
  26  0005              ;# 26 "F:\Project\Carilex\E-Signal\i2c\200323-1\200323-1\I2C_SUB..c" 1
  26  0005              	NOP
  26  0005              	ENDIF
  26  0005              ;# 26 "F:\Project\Carilex\E-Signal\i2c\200323-1\200323-1\I2C_SUB..c" 1
  26  0005              	IF (5<8) AND (5>3)
  26  0005              ;# 26 "F:\Project\Carilex\E-Signal\i2c\200323-1\200323-1\I2C_SUB..c" 1
  26  0005  2000     E  	CALL __DELAY3 + 7 -5
  26  0006              	ENDIF
  26  0006              ;# 26 "F:\Project\Carilex\E-Signal\i2c\200323-1\200323-1\I2C_SUB..c" 1
  26  0006              	IF (5< 0404h) AND (5>7)
  26  0006              ;# 26 "F:\Project\Carilex\E-Signal\i2c\200323-1\200323-1\I2C_SUB..c" 1
  26  0006              	MOV A,5/4-1
  26  0006              ;# 26 "F:\Project\Carilex\E-Signal\i2c\200323-1\200323-1\I2C_SUB..c" 1
  26  0006              	CALL __DELAYX3 + 3 -(5 MOD 4)
  26  0006              	ENDIF
  26  0006              ;# 26 "F:\Project\Carilex\E-Signal\i2c\200323-1\200323-1\I2C_SUB..c" 1
  26  0006              	IF (5< 0x40B) AND (5> 0403h)
  26  0006              ;# 26 "F:\Project\Carilex\E-Signal\i2c\200323-1\200323-1\I2C_SUB..c" 1
  26  0006              	MOV A,0 
  26  0006              ;# 26 "F:\Project\Carilex\E-Signal\i2c\200323-1\200323-1\I2C_SUB..c" 1
  26  0006              	CALL __DELAYX6 + 0x40a -5
  26  0006              	ENDIF
  26  0006              ;# 26 "F:\Project\Carilex\E-Signal\i2c\200323-1\200323-1\I2C_SUB..c" 1
  26  0006              	IF (5 >= 0x40b) AND ((((5-9)%0402h)/4+1)>256)
  26  0006              ;# 26 "F:\Project\Carilex\E-Signal\i2c\200323-1\200323-1\I2C_SUB..c" 1
  26  0006              	MOV A,(5-9)/0402h
"File: I2C_SUB..c    Assembler  Version HGASM0202      Page 10

  26  0006              ;# 26 "F:\Project\Carilex\E-Signal\i2c\200323-1\200323-1\I2C_SUB..c" 1
  26  0006              	MOV _builtin_holtek_delay_2,A
  26  0006              ;# 26 "F:\Project\Carilex\E-Signal\i2c\200323-1\200323-1\I2C_SUB..c" 1
  26  0006              	MOV A,0
  26  0006              ;# 26 "F:\Project\Carilex\E-Signal\i2c\200323-1\200323-1\I2C_SUB..c" 1
  26  0006              	CALL __DELAYY5 +5- (((5-9)%0402h)%6)
  26  0006              	ENDIF
  26  0006              ;# 26 "F:\Project\Carilex\E-Signal\i2c\200323-1\200323-1\I2C_SUB..c" 1
  26  0006              	IF (5 >= 0x40b) AND ((((5-9)%0402h)/4+1)<=256)
  26  0006              ;# 26 "F:\Project\Carilex\E-Signal\i2c\200323-1\200323-1\I2C_SUB..c" 1
  26  0006              	MOV A,(5-9)/0402h
  26  0006              ;# 26 "F:\Project\Carilex\E-Signal\i2c\200323-1\200323-1\I2C_SUB..c" 1
  26  0006              	MOV _builtin_holtek_delay_2,A
  26  0006              ;# 26 "F:\Project\Carilex\E-Signal\i2c\200323-1\200323-1\I2C_SUB..c" 1
  26  0006              	MOV A,((5-9)%0402h)/4+1
  26  0006              ;# 26 "F:\Project\Carilex\E-Signal\i2c\200323-1\200323-1\I2C_SUB..c" 1
  26  0006              	CALL __DELAYY3 +3-(((5-9)%0402h)%4)
  26  0006              	ENDIF
  27  0006              #line 27 "F:\Project\Carilex\E-Signal\i2c\200323-1\200323-1\I2C_SUB..c"
  27  0006  3214        	set [20].4
  27  0007              ;# 27 "F:\Project\Carilex\E-Signal\i2c\200323-1\200323-1\I2C_SUB..c" 1
  27  0007              	IF 5>263690
  27  0007              ;# 27 "F:\Project\Carilex\E-Signal\i2c\200323-1\200323-1\I2C_SUB..c" 1
  27  0007              	ERRMESSAGE 'the value 5of the argument exceeds the maxinum 263690'
  27  0007              	ENDIF
  27  0007              ;# 27 "F:\Project\Carilex\E-Signal\i2c\200323-1\200323-1\I2C_SUB..c" 1
  27  0007              	IF 5<0
  27  0007              ;# 27 "F:\Project\Carilex\E-Signal\i2c\200323-1\200323-1\I2C_SUB..c" 1
  27  0007              	ERRMESSAGE 'the value 5 of the argument exceeds the mininum 0'
  27  0007              	ENDIF
  27  0007              ;# 27 "F:\Project\Carilex\E-Signal\i2c\200323-1\200323-1\I2C_SUB..c" 1
  27  0007              	IF 5==0
  27  0007              ;# 27 "F:\Project\Carilex\E-Signal\i2c\200323-1\200323-1\I2C_SUB..c" 1
  27  0007              	JMP $
  27  0007              	ENDIF
  27  0007              ;# 27 "F:\Project\Carilex\E-Signal\i2c\200323-1\200323-1\I2C_SUB..c" 1
  27  0007              	IF 5==1
  27  0007              ;# 27 "F:\Project\Carilex\E-Signal\i2c\200323-1\200323-1\I2C_SUB..c" 1
  27  0007              	NOP
  27  0007              	ENDIF
  27  0007              ;# 27 "F:\Project\Carilex\E-Signal\i2c\200323-1\200323-1\I2C_SUB..c" 1
  27  0007              	IF 5==2
  27  0007              ;# 27 "F:\Project\Carilex\E-Signal\i2c\200323-1\200323-1\I2C_SUB..c" 1
  27  0007              	NOP
  27  0007              ;# 27 "F:\Project\Carilex\E-Signal\i2c\200323-1\200323-1\I2C_SUB..c" 1
  27  0007              	NOP
  27  0007              	ENDIF
  27  0007              ;# 27 "F:\Project\Carilex\E-Signal\i2c\200323-1\200323-1\I2C_SUB..c" 1
  27  0007              	IF 5==3
  27  0007              ;# 27 "F:\Project\Carilex\E-Signal\i2c\200323-1\200323-1\I2C_SUB..c" 1
  27  0007              	NOP
  27  0007              ;# 27 "F:\Project\Carilex\E-Signal\i2c\200323-1\200323-1\I2C_SUB..c" 1
  27  0007              	NOP
  27  0007              ;# 27 "F:\Project\Carilex\E-Signal\i2c\200323-1\200323-1\I2C_SUB..c" 1
  27  0007              	NOP
  27  0007              	ENDIF
  27  0007              ;# 27 "F:\Project\Carilex\E-Signal\i2c\200323-1\200323-1\I2C_SUB..c" 1
  27  0007              	IF (5<8) AND (5>3)
  27  0007              ;# 27 "F:\Project\Carilex\E-Signal\i2c\200323-1\200323-1\I2C_SUB..c" 1
  27  0007  2000     E  	CALL __DELAY3 + 7 -5
"File: I2C_SUB..c    Assembler  Version HGASM0202      Page 11

  27  0008              	ENDIF
  27  0008              ;# 27 "F:\Project\Carilex\E-Signal\i2c\200323-1\200323-1\I2C_SUB..c" 1
  27  0008              	IF (5< 0404h) AND (5>7)
  27  0008              ;# 27 "F:\Project\Carilex\E-Signal\i2c\200323-1\200323-1\I2C_SUB..c" 1
  27  0008              	MOV A,5/4-1
  27  0008              ;# 27 "F:\Project\Carilex\E-Signal\i2c\200323-1\200323-1\I2C_SUB..c" 1
  27  0008              	CALL __DELAYX3 + 3 -(5 MOD 4)
  27  0008              	ENDIF
  27  0008              ;# 27 "F:\Project\Carilex\E-Signal\i2c\200323-1\200323-1\I2C_SUB..c" 1
  27  0008              	IF (5< 0x40B) AND (5> 0403h)
  27  0008              ;# 27 "F:\Project\Carilex\E-Signal\i2c\200323-1\200323-1\I2C_SUB..c" 1
  27  0008              	MOV A,0 
  27  0008              ;# 27 "F:\Project\Carilex\E-Signal\i2c\200323-1\200323-1\I2C_SUB..c" 1
  27  0008              	CALL __DELAYX6 + 0x40a -5
  27  0008              	ENDIF
  27  0008              ;# 27 "F:\Project\Carilex\E-Signal\i2c\200323-1\200323-1\I2C_SUB..c" 1
  27  0008              	IF (5 >= 0x40b) AND ((((5-9)%0402h)/4+1)>256)
  27  0008              ;# 27 "F:\Project\Carilex\E-Signal\i2c\200323-1\200323-1\I2C_SUB..c" 1
  27  0008              	MOV A,(5-9)/0402h
  27  0008              ;# 27 "F:\Project\Carilex\E-Signal\i2c\200323-1\200323-1\I2C_SUB..c" 1
  27  0008              	MOV _builtin_holtek_delay_2,A
  27  0008              ;# 27 "F:\Project\Carilex\E-Signal\i2c\200323-1\200323-1\I2C_SUB..c" 1
  27  0008              	MOV A,0
  27  0008              ;# 27 "F:\Project\Carilex\E-Signal\i2c\200323-1\200323-1\I2C_SUB..c" 1
  27  0008              	CALL __DELAYY5 +5- (((5-9)%0402h)%6)
  27  0008              	ENDIF
  27  0008              ;# 27 "F:\Project\Carilex\E-Signal\i2c\200323-1\200323-1\I2C_SUB..c" 1
  27  0008              	IF (5 >= 0x40b) AND ((((5-9)%0402h)/4+1)<=256)
  27  0008              ;# 27 "F:\Project\Carilex\E-Signal\i2c\200323-1\200323-1\I2C_SUB..c" 1
  27  0008              	MOV A,(5-9)/0402h
  27  0008              ;# 27 "F:\Project\Carilex\E-Signal\i2c\200323-1\200323-1\I2C_SUB..c" 1
  27  0008              	MOV _builtin_holtek_delay_2,A
  27  0008              ;# 27 "F:\Project\Carilex\E-Signal\i2c\200323-1\200323-1\I2C_SUB..c" 1
  27  0008              	MOV A,((5-9)%0402h)/4+1
  27  0008              ;# 27 "F:\Project\Carilex\E-Signal\i2c\200323-1\200323-1\I2C_SUB..c" 1
  27  0008              	CALL __DELAYY3 +3-(((5-9)%0402h)%4)
  27  0008              	ENDIF
  28  0008              #line 28 "F:\Project\Carilex\E-Signal\i2c\200323-1\200323-1\I2C_SUB..c"
  28  0008  34A5        	clr [37].1
  28  0009              ;# 28 "F:\Project\Carilex\E-Signal\i2c\200323-1\200323-1\I2C_SUB..c" 1
  28  0009              	IF 5>263690
  28  0009              ;# 28 "F:\Project\Carilex\E-Signal\i2c\200323-1\200323-1\I2C_SUB..c" 1
  28  0009              	ERRMESSAGE 'the value 5of the argument exceeds the maxinum 263690'
  28  0009              	ENDIF
  28  0009              ;# 28 "F:\Project\Carilex\E-Signal\i2c\200323-1\200323-1\I2C_SUB..c" 1
  28  0009              	IF 5<0
  28  0009              ;# 28 "F:\Project\Carilex\E-Signal\i2c\200323-1\200323-1\I2C_SUB..c" 1
  28  0009              	ERRMESSAGE 'the value 5 of the argument exceeds the mininum 0'
  28  0009              	ENDIF
  28  0009              ;# 28 "F:\Project\Carilex\E-Signal\i2c\200323-1\200323-1\I2C_SUB..c" 1
  28  0009              	IF 5==0
  28  0009              ;# 28 "F:\Project\Carilex\E-Signal\i2c\200323-1\200323-1\I2C_SUB..c" 1
  28  0009              	JMP $
  28  0009              	ENDIF
  28  0009              ;# 28 "F:\Project\Carilex\E-Signal\i2c\200323-1\200323-1\I2C_SUB..c" 1
  28  0009              	IF 5==1
  28  0009              ;# 28 "F:\Project\Carilex\E-Signal\i2c\200323-1\200323-1\I2C_SUB..c" 1
  28  0009              	NOP
  28  0009              	ENDIF
  28  0009              ;# 28 "F:\Project\Carilex\E-Signal\i2c\200323-1\200323-1\I2C_SUB..c" 1
"File: I2C_SUB..c    Assembler  Version HGASM0202      Page 12

  28  0009              	IF 5==2
  28  0009              ;# 28 "F:\Project\Carilex\E-Signal\i2c\200323-1\200323-1\I2C_SUB..c" 1
  28  0009              	NOP
  28  0009              ;# 28 "F:\Project\Carilex\E-Signal\i2c\200323-1\200323-1\I2C_SUB..c" 1
  28  0009              	NOP
  28  0009              	ENDIF
  28  0009              ;# 28 "F:\Project\Carilex\E-Signal\i2c\200323-1\200323-1\I2C_SUB..c" 1
  28  0009              	IF 5==3
  28  0009              ;# 28 "F:\Project\Carilex\E-Signal\i2c\200323-1\200323-1\I2C_SUB..c" 1
  28  0009              	NOP
  28  0009              ;# 28 "F:\Project\Carilex\E-Signal\i2c\200323-1\200323-1\I2C_SUB..c" 1
  28  0009              	NOP
  28  0009              ;# 28 "F:\Project\Carilex\E-Signal\i2c\200323-1\200323-1\I2C_SUB..c" 1
  28  0009              	NOP
  28  0009              	ENDIF
  28  0009              ;# 28 "F:\Project\Carilex\E-Signal\i2c\200323-1\200323-1\I2C_SUB..c" 1
  28  0009              	IF (5<8) AND (5>3)
  28  0009              ;# 28 "F:\Project\Carilex\E-Signal\i2c\200323-1\200323-1\I2C_SUB..c" 1
  28  0009  2000     E  	CALL __DELAY3 + 7 -5
  28  000A              	ENDIF
  28  000A              ;# 28 "F:\Project\Carilex\E-Signal\i2c\200323-1\200323-1\I2C_SUB..c" 1
  28  000A              	IF (5< 0404h) AND (5>7)
  28  000A              ;# 28 "F:\Project\Carilex\E-Signal\i2c\200323-1\200323-1\I2C_SUB..c" 1
  28  000A              	MOV A,5/4-1
  28  000A              ;# 28 "F:\Project\Carilex\E-Signal\i2c\200323-1\200323-1\I2C_SUB..c" 1
  28  000A              	CALL __DELAYX3 + 3 -(5 MOD 4)
  28  000A              	ENDIF
  28  000A              ;# 28 "F:\Project\Carilex\E-Signal\i2c\200323-1\200323-1\I2C_SUB..c" 1
  28  000A              	IF (5< 0x40B) AND (5> 0403h)
  28  000A              ;# 28 "F:\Project\Carilex\E-Signal\i2c\200323-1\200323-1\I2C_SUB..c" 1
  28  000A              	MOV A,0 
  28  000A              ;# 28 "F:\Project\Carilex\E-Signal\i2c\200323-1\200323-1\I2C_SUB..c" 1
  28  000A              	CALL __DELAYX6 + 0x40a -5
  28  000A              	ENDIF
  28  000A              ;# 28 "F:\Project\Carilex\E-Signal\i2c\200323-1\200323-1\I2C_SUB..c" 1
  28  000A              	IF (5 >= 0x40b) AND ((((5-9)%0402h)/4+1)>256)
  28  000A              ;# 28 "F:\Project\Carilex\E-Signal\i2c\200323-1\200323-1\I2C_SUB..c" 1
  28  000A              	MOV A,(5-9)/0402h
  28  000A              ;# 28 "F:\Project\Carilex\E-Signal\i2c\200323-1\200323-1\I2C_SUB..c" 1
  28  000A              	MOV _builtin_holtek_delay_2,A
  28  000A              ;# 28 "F:\Project\Carilex\E-Signal\i2c\200323-1\200323-1\I2C_SUB..c" 1
  28  000A              	MOV A,0
  28  000A              ;# 28 "F:\Project\Carilex\E-Signal\i2c\200323-1\200323-1\I2C_SUB..c" 1
  28  000A              	CALL __DELAYY5 +5- (((5-9)%0402h)%6)
  28  000A              	ENDIF
  28  000A              ;# 28 "F:\Project\Carilex\E-Signal\i2c\200323-1\200323-1\I2C_SUB..c" 1
  28  000A              	IF (5 >= 0x40b) AND ((((5-9)%0402h)/4+1)<=256)
  28  000A              ;# 28 "F:\Project\Carilex\E-Signal\i2c\200323-1\200323-1\I2C_SUB..c" 1
  28  000A              	MOV A,(5-9)/0402h
  28  000A              ;# 28 "F:\Project\Carilex\E-Signal\i2c\200323-1\200323-1\I2C_SUB..c" 1
  28  000A              	MOV _builtin_holtek_delay_2,A
  28  000A              ;# 28 "F:\Project\Carilex\E-Signal\i2c\200323-1\200323-1\I2C_SUB..c" 1
  28  000A              	MOV A,((5-9)%0402h)/4+1
  28  000A              ;# 28 "F:\Project\Carilex\E-Signal\i2c\200323-1\200323-1\I2C_SUB..c" 1
  28  000A              	CALL __DELAYY3 +3-(((5-9)%0402h)%4)
  28  000A              	ENDIF
  28  000A  0003        	ret
  28  000B              _i2cStop endp
  28  000B              #line 28 "F:\Project\Carilex\E-Signal\i2c\200323-1\200323-1\I2C_SUB..c"
  28  000B              #pragma debug scope 1 1
"File: I2C_SUB..c    Assembler  Version HGASM0202      Page 13

  28  000B              public _Ack
  28  000B              #pragma debug scope 4 1
  35  000B              #line 35 "F:\Project\Carilex\E-Signal\i2c\200323-1\200323-1\I2C_SUB..c"
  35  0000              _Ack .section 'code'
  35  0000              _Ack proc
  36  0000              #line 36 "F:\Project\Carilex\E-Signal\i2c\200323-1\200323-1\I2C_SUB..c"
  36  0000  3615        	clr [21].4
  37  0001              #line 37 "F:\Project\Carilex\E-Signal\i2c\200323-1\200323-1\I2C_SUB..c"
  37  0001  34A6        	clr [38].1
  38  0002              #line 38 "F:\Project\Carilex\E-Signal\i2c\200323-1\200323-1\I2C_SUB..c"
  38  0002  3614        	clr [20].4
  38  0003              ;# 38 "F:\Project\Carilex\E-Signal\i2c\200323-1\200323-1\I2C_SUB..c" 1
  38  0003              	IF 5>263690
  38  0003              ;# 38 "F:\Project\Carilex\E-Signal\i2c\200323-1\200323-1\I2C_SUB..c" 1
  38  0003              	ERRMESSAGE 'the value 5of the argument exceeds the maxinum 263690'
  38  0003              	ENDIF
  38  0003              ;# 38 "F:\Project\Carilex\E-Signal\i2c\200323-1\200323-1\I2C_SUB..c" 1
  38  0003              	IF 5<0
  38  0003              ;# 38 "F:\Project\Carilex\E-Signal\i2c\200323-1\200323-1\I2C_SUB..c" 1
  38  0003              	ERRMESSAGE 'the value 5 of the argument exceeds the mininum 0'
  38  0003              	ENDIF
  38  0003              ;# 38 "F:\Project\Carilex\E-Signal\i2c\200323-1\200323-1\I2C_SUB..c" 1
  38  0003              	IF 5==0
  38  0003              ;# 38 "F:\Project\Carilex\E-Signal\i2c\200323-1\200323-1\I2C_SUB..c" 1
  38  0003              	JMP $
  38  0003              	ENDIF
  38  0003              ;# 38 "F:\Project\Carilex\E-Signal\i2c\200323-1\200323-1\I2C_SUB..c" 1
  38  0003              	IF 5==1
  38  0003              ;# 38 "F:\Project\Carilex\E-Signal\i2c\200323-1\200323-1\I2C_SUB..c" 1
  38  0003              	NOP
  38  0003              	ENDIF
  38  0003              ;# 38 "F:\Project\Carilex\E-Signal\i2c\200323-1\200323-1\I2C_SUB..c" 1
  38  0003              	IF 5==2
  38  0003              ;# 38 "F:\Project\Carilex\E-Signal\i2c\200323-1\200323-1\I2C_SUB..c" 1
  38  0003              	NOP
  38  0003              ;# 38 "F:\Project\Carilex\E-Signal\i2c\200323-1\200323-1\I2C_SUB..c" 1
  38  0003              	NOP
  38  0003              	ENDIF
  38  0003              ;# 38 "F:\Project\Carilex\E-Signal\i2c\200323-1\200323-1\I2C_SUB..c" 1
  38  0003              	IF 5==3
  38  0003              ;# 38 "F:\Project\Carilex\E-Signal\i2c\200323-1\200323-1\I2C_SUB..c" 1
  38  0003              	NOP
  38  0003              ;# 38 "F:\Project\Carilex\E-Signal\i2c\200323-1\200323-1\I2C_SUB..c" 1
  38  0003              	NOP
  38  0003              ;# 38 "F:\Project\Carilex\E-Signal\i2c\200323-1\200323-1\I2C_SUB..c" 1
  38  0003              	NOP
  38  0003              	ENDIF
  38  0003              ;# 38 "F:\Project\Carilex\E-Signal\i2c\200323-1\200323-1\I2C_SUB..c" 1
  38  0003              	IF (5<8) AND (5>3)
  38  0003              ;# 38 "F:\Project\Carilex\E-Signal\i2c\200323-1\200323-1\I2C_SUB..c" 1
  38  0003  2000     E  	CALL __DELAY3 + 7 -5
  38  0004              	ENDIF
  38  0004              ;# 38 "F:\Project\Carilex\E-Signal\i2c\200323-1\200323-1\I2C_SUB..c" 1
  38  0004              	IF (5< 0404h) AND (5>7)
  38  0004              ;# 38 "F:\Project\Carilex\E-Signal\i2c\200323-1\200323-1\I2C_SUB..c" 1
  38  0004              	MOV A,5/4-1
  38  0004              ;# 38 "F:\Project\Carilex\E-Signal\i2c\200323-1\200323-1\I2C_SUB..c" 1
  38  0004              	CALL __DELAYX3 + 3 -(5 MOD 4)
  38  0004              	ENDIF
  38  0004              ;# 38 "F:\Project\Carilex\E-Signal\i2c\200323-1\200323-1\I2C_SUB..c" 1
"File: I2C_SUB..c    Assembler  Version HGASM0202      Page 14

  38  0004              	IF (5< 0x40B) AND (5> 0403h)
  38  0004              ;# 38 "F:\Project\Carilex\E-Signal\i2c\200323-1\200323-1\I2C_SUB..c" 1
  38  0004              	MOV A,0 
  38  0004              ;# 38 "F:\Project\Carilex\E-Signal\i2c\200323-1\200323-1\I2C_SUB..c" 1
  38  0004              	CALL __DELAYX6 + 0x40a -5
  38  0004              	ENDIF
  38  0004              ;# 38 "F:\Project\Carilex\E-Signal\i2c\200323-1\200323-1\I2C_SUB..c" 1
  38  0004              	IF (5 >= 0x40b) AND ((((5-9)%0402h)/4+1)>256)
  38  0004              ;# 38 "F:\Project\Carilex\E-Signal\i2c\200323-1\200323-1\I2C_SUB..c" 1
  38  0004              	MOV A,(5-9)/0402h
  38  0004              ;# 38 "F:\Project\Carilex\E-Signal\i2c\200323-1\200323-1\I2C_SUB..c" 1
  38  0004              	MOV _builtin_holtek_delay_2,A
  38  0004              ;# 38 "F:\Project\Carilex\E-Signal\i2c\200323-1\200323-1\I2C_SUB..c" 1
  38  0004              	MOV A,0
  38  0004              ;# 38 "F:\Project\Carilex\E-Signal\i2c\200323-1\200323-1\I2C_SUB..c" 1
  38  0004              	CALL __DELAYY5 +5- (((5-9)%0402h)%6)
  38  0004              	ENDIF
  38  0004              ;# 38 "F:\Project\Carilex\E-Signal\i2c\200323-1\200323-1\I2C_SUB..c" 1
  38  0004              	IF (5 >= 0x40b) AND ((((5-9)%0402h)/4+1)<=256)
  38  0004              ;# 38 "F:\Project\Carilex\E-Signal\i2c\200323-1\200323-1\I2C_SUB..c" 1
  38  0004              	MOV A,(5-9)/0402h
  38  0004              ;# 38 "F:\Project\Carilex\E-Signal\i2c\200323-1\200323-1\I2C_SUB..c" 1
  38  0004              	MOV _builtin_holtek_delay_2,A
  38  0004              ;# 38 "F:\Project\Carilex\E-Signal\i2c\200323-1\200323-1\I2C_SUB..c" 1
  38  0004              	MOV A,((5-9)%0402h)/4+1
  38  0004              ;# 38 "F:\Project\Carilex\E-Signal\i2c\200323-1\200323-1\I2C_SUB..c" 1
  38  0004              	CALL __DELAYY3 +3-(((5-9)%0402h)%4)
  38  0004              	ENDIF
  39  0004              #line 39 "F:\Project\Carilex\E-Signal\i2c\200323-1\200323-1\I2C_SUB..c"
  39  0004  30A5        	set [37].1
  39  0005              ;# 39 "F:\Project\Carilex\E-Signal\i2c\200323-1\200323-1\I2C_SUB..c" 1
  39  0005              	IF 5>263690
  39  0005              ;# 39 "F:\Project\Carilex\E-Signal\i2c\200323-1\200323-1\I2C_SUB..c" 1
  39  0005              	ERRMESSAGE 'the value 5of the argument exceeds the maxinum 263690'
  39  0005              	ENDIF
  39  0005              ;# 39 "F:\Project\Carilex\E-Signal\i2c\200323-1\200323-1\I2C_SUB..c" 1
  39  0005              	IF 5<0
  39  0005              ;# 39 "F:\Project\Carilex\E-Signal\i2c\200323-1\200323-1\I2C_SUB..c" 1
  39  0005              	ERRMESSAGE 'the value 5 of the argument exceeds the mininum 0'
  39  0005              	ENDIF
  39  0005              ;# 39 "F:\Project\Carilex\E-Signal\i2c\200323-1\200323-1\I2C_SUB..c" 1
  39  0005              	IF 5==0
  39  0005              ;# 39 "F:\Project\Carilex\E-Signal\i2c\200323-1\200323-1\I2C_SUB..c" 1
  39  0005              	JMP $
  39  0005              	ENDIF
  39  0005              ;# 39 "F:\Project\Carilex\E-Signal\i2c\200323-1\200323-1\I2C_SUB..c" 1
  39  0005              	IF 5==1
  39  0005              ;# 39 "F:\Project\Carilex\E-Signal\i2c\200323-1\200323-1\I2C_SUB..c" 1
  39  0005              	NOP
  39  0005              	ENDIF
  39  0005              ;# 39 "F:\Project\Carilex\E-Signal\i2c\200323-1\200323-1\I2C_SUB..c" 1
  39  0005              	IF 5==2
  39  0005              ;# 39 "F:\Project\Carilex\E-Signal\i2c\200323-1\200323-1\I2C_SUB..c" 1
  39  0005              	NOP
  39  0005              ;# 39 "F:\Project\Carilex\E-Signal\i2c\200323-1\200323-1\I2C_SUB..c" 1
  39  0005              	NOP
  39  0005              	ENDIF
  39  0005              ;# 39 "F:\Project\Carilex\E-Signal\i2c\200323-1\200323-1\I2C_SUB..c" 1
  39  0005              	IF 5==3
  39  0005              ;# 39 "F:\Project\Carilex\E-Signal\i2c\200323-1\200323-1\I2C_SUB..c" 1
"File: I2C_SUB..c    Assembler  Version HGASM0202      Page 15

  39  0005              	NOP
  39  0005              ;# 39 "F:\Project\Carilex\E-Signal\i2c\200323-1\200323-1\I2C_SUB..c" 1
  39  0005              	NOP
  39  0005              ;# 39 "F:\Project\Carilex\E-Signal\i2c\200323-1\200323-1\I2C_SUB..c" 1
  39  0005              	NOP
  39  0005              	ENDIF
  39  0005              ;# 39 "F:\Project\Carilex\E-Signal\i2c\200323-1\200323-1\I2C_SUB..c" 1
  39  0005              	IF (5<8) AND (5>3)
  39  0005              ;# 39 "F:\Project\Carilex\E-Signal\i2c\200323-1\200323-1\I2C_SUB..c" 1
  39  0005  2000     E  	CALL __DELAY3 + 7 -5
  39  0006              	ENDIF
  39  0006              ;# 39 "F:\Project\Carilex\E-Signal\i2c\200323-1\200323-1\I2C_SUB..c" 1
  39  0006              	IF (5< 0404h) AND (5>7)
  39  0006              ;# 39 "F:\Project\Carilex\E-Signal\i2c\200323-1\200323-1\I2C_SUB..c" 1
  39  0006              	MOV A,5/4-1
  39  0006              ;# 39 "F:\Project\Carilex\E-Signal\i2c\200323-1\200323-1\I2C_SUB..c" 1
  39  0006              	CALL __DELAYX3 + 3 -(5 MOD 4)
  39  0006              	ENDIF
  39  0006              ;# 39 "F:\Project\Carilex\E-Signal\i2c\200323-1\200323-1\I2C_SUB..c" 1
  39  0006              	IF (5< 0x40B) AND (5> 0403h)
  39  0006              ;# 39 "F:\Project\Carilex\E-Signal\i2c\200323-1\200323-1\I2C_SUB..c" 1
  39  0006              	MOV A,0 
  39  0006              ;# 39 "F:\Project\Carilex\E-Signal\i2c\200323-1\200323-1\I2C_SUB..c" 1
  39  0006              	CALL __DELAYX6 + 0x40a -5
  39  0006              	ENDIF
  39  0006              ;# 39 "F:\Project\Carilex\E-Signal\i2c\200323-1\200323-1\I2C_SUB..c" 1
  39  0006              	IF (5 >= 0x40b) AND ((((5-9)%0402h)/4+1)>256)
  39  0006              ;# 39 "F:\Project\Carilex\E-Signal\i2c\200323-1\200323-1\I2C_SUB..c" 1
  39  0006              	MOV A,(5-9)/0402h
  39  0006              ;# 39 "F:\Project\Carilex\E-Signal\i2c\200323-1\200323-1\I2C_SUB..c" 1
  39  0006              	MOV _builtin_holtek_delay_2,A
  39  0006              ;# 39 "F:\Project\Carilex\E-Signal\i2c\200323-1\200323-1\I2C_SUB..c" 1
  39  0006              	MOV A,0
  39  0006              ;# 39 "F:\Project\Carilex\E-Signal\i2c\200323-1\200323-1\I2C_SUB..c" 1
  39  0006              	CALL __DELAYY5 +5- (((5-9)%0402h)%6)
  39  0006              	ENDIF
  39  0006              ;# 39 "F:\Project\Carilex\E-Signal\i2c\200323-1\200323-1\I2C_SUB..c" 1
  39  0006              	IF (5 >= 0x40b) AND ((((5-9)%0402h)/4+1)<=256)
  39  0006              ;# 39 "F:\Project\Carilex\E-Signal\i2c\200323-1\200323-1\I2C_SUB..c" 1
  39  0006              	MOV A,(5-9)/0402h
  39  0006              ;# 39 "F:\Project\Carilex\E-Signal\i2c\200323-1\200323-1\I2C_SUB..c" 1
  39  0006              	MOV _builtin_holtek_delay_2,A
  39  0006              ;# 39 "F:\Project\Carilex\E-Signal\i2c\200323-1\200323-1\I2C_SUB..c" 1
  39  0006              	MOV A,((5-9)%0402h)/4+1
  39  0006              ;# 39 "F:\Project\Carilex\E-Signal\i2c\200323-1\200323-1\I2C_SUB..c" 1
  39  0006              	CALL __DELAYY3 +3-(((5-9)%0402h)%4)
  39  0006              	ENDIF
  40  0006              #line 40 "F:\Project\Carilex\E-Signal\i2c\200323-1\200323-1\I2C_SUB..c"
  40  0006  34A5        	clr [37].1
  40  0007              ;# 40 "F:\Project\Carilex\E-Signal\i2c\200323-1\200323-1\I2C_SUB..c" 1
  40  0007              	IF 5>263690
  40  0007              ;# 40 "F:\Project\Carilex\E-Signal\i2c\200323-1\200323-1\I2C_SUB..c" 1
  40  0007              	ERRMESSAGE 'the value 5of the argument exceeds the maxinum 263690'
  40  0007              	ENDIF
  40  0007              ;# 40 "F:\Project\Carilex\E-Signal\i2c\200323-1\200323-1\I2C_SUB..c" 1
  40  0007              	IF 5<0
  40  0007              ;# 40 "F:\Project\Carilex\E-Signal\i2c\200323-1\200323-1\I2C_SUB..c" 1
  40  0007              	ERRMESSAGE 'the value 5 of the argument exceeds the mininum 0'
  40  0007              	ENDIF
  40  0007              ;# 40 "F:\Project\Carilex\E-Signal\i2c\200323-1\200323-1\I2C_SUB..c" 1
"File: I2C_SUB..c    Assembler  Version HGASM0202      Page 16

  40  0007              	IF 5==0
  40  0007              ;# 40 "F:\Project\Carilex\E-Signal\i2c\200323-1\200323-1\I2C_SUB..c" 1
  40  0007              	JMP $
  40  0007              	ENDIF
  40  0007              ;# 40 "F:\Project\Carilex\E-Signal\i2c\200323-1\200323-1\I2C_SUB..c" 1
  40  0007              	IF 5==1
  40  0007              ;# 40 "F:\Project\Carilex\E-Signal\i2c\200323-1\200323-1\I2C_SUB..c" 1
  40  0007              	NOP
  40  0007              	ENDIF
  40  0007              ;# 40 "F:\Project\Carilex\E-Signal\i2c\200323-1\200323-1\I2C_SUB..c" 1
  40  0007              	IF 5==2
  40  0007              ;# 40 "F:\Project\Carilex\E-Signal\i2c\200323-1\200323-1\I2C_SUB..c" 1
  40  0007              	NOP
  40  0007              ;# 40 "F:\Project\Carilex\E-Signal\i2c\200323-1\200323-1\I2C_SUB..c" 1
  40  0007              	NOP
  40  0007              	ENDIF
  40  0007              ;# 40 "F:\Project\Carilex\E-Signal\i2c\200323-1\200323-1\I2C_SUB..c" 1
  40  0007              	IF 5==3
  40  0007              ;# 40 "F:\Project\Carilex\E-Signal\i2c\200323-1\200323-1\I2C_SUB..c" 1
  40  0007              	NOP
  40  0007              ;# 40 "F:\Project\Carilex\E-Signal\i2c\200323-1\200323-1\I2C_SUB..c" 1
  40  0007              	NOP
  40  0007              ;# 40 "F:\Project\Carilex\E-Signal\i2c\200323-1\200323-1\I2C_SUB..c" 1
  40  0007              	NOP
  40  0007              	ENDIF
  40  0007              ;# 40 "F:\Project\Carilex\E-Signal\i2c\200323-1\200323-1\I2C_SUB..c" 1
  40  0007              	IF (5<8) AND (5>3)
  40  0007              ;# 40 "F:\Project\Carilex\E-Signal\i2c\200323-1\200323-1\I2C_SUB..c" 1
  40  0007  2000     E  	CALL __DELAY3 + 7 -5
  40  0008              	ENDIF
  40  0008              ;# 40 "F:\Project\Carilex\E-Signal\i2c\200323-1\200323-1\I2C_SUB..c" 1
  40  0008              	IF (5< 0404h) AND (5>7)
  40  0008              ;# 40 "F:\Project\Carilex\E-Signal\i2c\200323-1\200323-1\I2C_SUB..c" 1
  40  0008              	MOV A,5/4-1
  40  0008              ;# 40 "F:\Project\Carilex\E-Signal\i2c\200323-1\200323-1\I2C_SUB..c" 1
  40  0008              	CALL __DELAYX3 + 3 -(5 MOD 4)
  40  0008              	ENDIF
  40  0008              ;# 40 "F:\Project\Carilex\E-Signal\i2c\200323-1\200323-1\I2C_SUB..c" 1
  40  0008              	IF (5< 0x40B) AND (5> 0403h)
  40  0008              ;# 40 "F:\Project\Carilex\E-Signal\i2c\200323-1\200323-1\I2C_SUB..c" 1
  40  0008              	MOV A,0 
  40  0008              ;# 40 "F:\Project\Carilex\E-Signal\i2c\200323-1\200323-1\I2C_SUB..c" 1
  40  0008              	CALL __DELAYX6 + 0x40a -5
  40  0008              	ENDIF
  40  0008              ;# 40 "F:\Project\Carilex\E-Signal\i2c\200323-1\200323-1\I2C_SUB..c" 1
  40  0008              	IF (5 >= 0x40b) AND ((((5-9)%0402h)/4+1)>256)
  40  0008              ;# 40 "F:\Project\Carilex\E-Signal\i2c\200323-1\200323-1\I2C_SUB..c" 1
  40  0008              	MOV A,(5-9)/0402h
  40  0008              ;# 40 "F:\Project\Carilex\E-Signal\i2c\200323-1\200323-1\I2C_SUB..c" 1
  40  0008              	MOV _builtin_holtek_delay_2,A
  40  0008              ;# 40 "F:\Project\Carilex\E-Signal\i2c\200323-1\200323-1\I2C_SUB..c" 1
  40  0008              	MOV A,0
  40  0008              ;# 40 "F:\Project\Carilex\E-Signal\i2c\200323-1\200323-1\I2C_SUB..c" 1
  40  0008              	CALL __DELAYY5 +5- (((5-9)%0402h)%6)
  40  0008              	ENDIF
  40  0008              ;# 40 "F:\Project\Carilex\E-Signal\i2c\200323-1\200323-1\I2C_SUB..c" 1
  40  0008              	IF (5 >= 0x40b) AND ((((5-9)%0402h)/4+1)<=256)
  40  0008              ;# 40 "F:\Project\Carilex\E-Signal\i2c\200323-1\200323-1\I2C_SUB..c" 1
  40  0008              	MOV A,(5-9)/0402h
  40  0008              ;# 40 "F:\Project\Carilex\E-Signal\i2c\200323-1\200323-1\I2C_SUB..c" 1
"File: I2C_SUB..c    Assembler  Version HGASM0202      Page 17

  40  0008              	MOV _builtin_holtek_delay_2,A
  40  0008              ;# 40 "F:\Project\Carilex\E-Signal\i2c\200323-1\200323-1\I2C_SUB..c" 1
  40  0008              	MOV A,((5-9)%0402h)/4+1
  40  0008              ;# 40 "F:\Project\Carilex\E-Signal\i2c\200323-1\200323-1\I2C_SUB..c" 1
  40  0008              	CALL __DELAYY3 +3-(((5-9)%0402h)%4)
  40  0008              	ENDIF
  41  0008              #line 41 "F:\Project\Carilex\E-Signal\i2c\200323-1\200323-1\I2C_SUB..c"
  41  0008  3214        	set [20].4
  41  0009              ;# 41 "F:\Project\Carilex\E-Signal\i2c\200323-1\200323-1\I2C_SUB..c" 1
  41  0009              	IF 5>263690
  41  0009              ;# 41 "F:\Project\Carilex\E-Signal\i2c\200323-1\200323-1\I2C_SUB..c" 1
  41  0009              	ERRMESSAGE 'the value 5of the argument exceeds the maxinum 263690'
  41  0009              	ENDIF
  41  0009              ;# 41 "F:\Project\Carilex\E-Signal\i2c\200323-1\200323-1\I2C_SUB..c" 1
  41  0009              	IF 5<0
  41  0009              ;# 41 "F:\Project\Carilex\E-Signal\i2c\200323-1\200323-1\I2C_SUB..c" 1
  41  0009              	ERRMESSAGE 'the value 5 of the argument exceeds the mininum 0'
  41  0009              	ENDIF
  41  0009              ;# 41 "F:\Project\Carilex\E-Signal\i2c\200323-1\200323-1\I2C_SUB..c" 1
  41  0009              	IF 5==0
  41  0009              ;# 41 "F:\Project\Carilex\E-Signal\i2c\200323-1\200323-1\I2C_SUB..c" 1
  41  0009              	JMP $
  41  0009              	ENDIF
  41  0009              ;# 41 "F:\Project\Carilex\E-Signal\i2c\200323-1\200323-1\I2C_SUB..c" 1
  41  0009              	IF 5==1
  41  0009              ;# 41 "F:\Project\Carilex\E-Signal\i2c\200323-1\200323-1\I2C_SUB..c" 1
  41  0009              	NOP
  41  0009              	ENDIF
  41  0009              ;# 41 "F:\Project\Carilex\E-Signal\i2c\200323-1\200323-1\I2C_SUB..c" 1
  41  0009              	IF 5==2
  41  0009              ;# 41 "F:\Project\Carilex\E-Signal\i2c\200323-1\200323-1\I2C_SUB..c" 1
  41  0009              	NOP
  41  0009              ;# 41 "F:\Project\Carilex\E-Signal\i2c\200323-1\200323-1\I2C_SUB..c" 1
  41  0009              	NOP
  41  0009              	ENDIF
  41  0009              ;# 41 "F:\Project\Carilex\E-Signal\i2c\200323-1\200323-1\I2C_SUB..c" 1
  41  0009              	IF 5==3
  41  0009              ;# 41 "F:\Project\Carilex\E-Signal\i2c\200323-1\200323-1\I2C_SUB..c" 1
  41  0009              	NOP
  41  0009              ;# 41 "F:\Project\Carilex\E-Signal\i2c\200323-1\200323-1\I2C_SUB..c" 1
  41  0009              	NOP
  41  0009              ;# 41 "F:\Project\Carilex\E-Signal\i2c\200323-1\200323-1\I2C_SUB..c" 1
  41  0009              	NOP
  41  0009              	ENDIF
  41  0009              ;# 41 "F:\Project\Carilex\E-Signal\i2c\200323-1\200323-1\I2C_SUB..c" 1
  41  0009              	IF (5<8) AND (5>3)
  41  0009              ;# 41 "F:\Project\Carilex\E-Signal\i2c\200323-1\200323-1\I2C_SUB..c" 1
  41  0009  2000     E  	CALL __DELAY3 + 7 -5
  41  000A              	ENDIF
  41  000A              ;# 41 "F:\Project\Carilex\E-Signal\i2c\200323-1\200323-1\I2C_SUB..c" 1
  41  000A              	IF (5< 0404h) AND (5>7)
  41  000A              ;# 41 "F:\Project\Carilex\E-Signal\i2c\200323-1\200323-1\I2C_SUB..c" 1
  41  000A              	MOV A,5/4-1
  41  000A              ;# 41 "F:\Project\Carilex\E-Signal\i2c\200323-1\200323-1\I2C_SUB..c" 1
  41  000A              	CALL __DELAYX3 + 3 -(5 MOD 4)
  41  000A              	ENDIF
  41  000A              ;# 41 "F:\Project\Carilex\E-Signal\i2c\200323-1\200323-1\I2C_SUB..c" 1
  41  000A              	IF (5< 0x40B) AND (5> 0403h)
  41  000A              ;# 41 "F:\Project\Carilex\E-Signal\i2c\200323-1\200323-1\I2C_SUB..c" 1
  41  000A              	MOV A,0 
"File: I2C_SUB..c    Assembler  Version HGASM0202      Page 18

  41  000A              ;# 41 "F:\Project\Carilex\E-Signal\i2c\200323-1\200323-1\I2C_SUB..c" 1
  41  000A              	CALL __DELAYX6 + 0x40a -5
  41  000A              	ENDIF
  41  000A              ;# 41 "F:\Project\Carilex\E-Signal\i2c\200323-1\200323-1\I2C_SUB..c" 1
  41  000A              	IF (5 >= 0x40b) AND ((((5-9)%0402h)/4+1)>256)
  41  000A              ;# 41 "F:\Project\Carilex\E-Signal\i2c\200323-1\200323-1\I2C_SUB..c" 1
  41  000A              	MOV A,(5-9)/0402h
  41  000A              ;# 41 "F:\Project\Carilex\E-Signal\i2c\200323-1\200323-1\I2C_SUB..c" 1
  41  000A              	MOV _builtin_holtek_delay_2,A
  41  000A              ;# 41 "F:\Project\Carilex\E-Signal\i2c\200323-1\200323-1\I2C_SUB..c" 1
  41  000A              	MOV A,0
  41  000A              ;# 41 "F:\Project\Carilex\E-Signal\i2c\200323-1\200323-1\I2C_SUB..c" 1
  41  000A              	CALL __DELAYY5 +5- (((5-9)%0402h)%6)
  41  000A              	ENDIF
  41  000A              ;# 41 "F:\Project\Carilex\E-Signal\i2c\200323-1\200323-1\I2C_SUB..c" 1
  41  000A              	IF (5 >= 0x40b) AND ((((5-9)%0402h)/4+1)<=256)
  41  000A              ;# 41 "F:\Project\Carilex\E-Signal\i2c\200323-1\200323-1\I2C_SUB..c" 1
  41  000A              	MOV A,(5-9)/0402h
  41  000A              ;# 41 "F:\Project\Carilex\E-Signal\i2c\200323-1\200323-1\I2C_SUB..c" 1
  41  000A              	MOV _builtin_holtek_delay_2,A
  41  000A              ;# 41 "F:\Project\Carilex\E-Signal\i2c\200323-1\200323-1\I2C_SUB..c" 1
  41  000A              	MOV A,((5-9)%0402h)/4+1
  41  000A              ;# 41 "F:\Project\Carilex\E-Signal\i2c\200323-1\200323-1\I2C_SUB..c" 1
  41  000A              	CALL __DELAYY3 +3-(((5-9)%0402h)%4)
  41  000A              	ENDIF
  41  000A  0003        	ret
  41  000B              _Ack endp
  41  000B              #line 41 "F:\Project\Carilex\E-Signal\i2c\200323-1\200323-1\I2C_SUB..c"
  41  000B              #pragma debug scope 1 1
  41  000B              public _NoAck
  41  000B              #pragma debug scope 5 1
  47  000B              #line 47 "F:\Project\Carilex\E-Signal\i2c\200323-1\200323-1\I2C_SUB..c"
  47  0000              _NoAck .section 'code'
  47  0000              _NoAck proc
  48  0000              #line 48 "F:\Project\Carilex\E-Signal\i2c\200323-1\200323-1\I2C_SUB..c"
  48  0000  3615        	clr [21].4
  49  0001              #line 49 "F:\Project\Carilex\E-Signal\i2c\200323-1\200323-1\I2C_SUB..c"
  49  0001  34A6        	clr [38].1
  50  0002              #line 50 "F:\Project\Carilex\E-Signal\i2c\200323-1\200323-1\I2C_SUB..c"
  50  0002  3214        	set [20].4
  50  0003              ;# 50 "F:\Project\Carilex\E-Signal\i2c\200323-1\200323-1\I2C_SUB..c" 1
  50  0003              	IF 5>263690
  50  0003              ;# 50 "F:\Project\Carilex\E-Signal\i2c\200323-1\200323-1\I2C_SUB..c" 1
  50  0003              	ERRMESSAGE 'the value 5of the argument exceeds the maxinum 263690'
  50  0003              	ENDIF
  50  0003              ;# 50 "F:\Project\Carilex\E-Signal\i2c\200323-1\200323-1\I2C_SUB..c" 1
  50  0003              	IF 5<0
  50  0003              ;# 50 "F:\Project\Carilex\E-Signal\i2c\200323-1\200323-1\I2C_SUB..c" 1
  50  0003              	ERRMESSAGE 'the value 5 of the argument exceeds the mininum 0'
  50  0003              	ENDIF
  50  0003              ;# 50 "F:\Project\Carilex\E-Signal\i2c\200323-1\200323-1\I2C_SUB..c" 1
  50  0003              	IF 5==0
  50  0003              ;# 50 "F:\Project\Carilex\E-Signal\i2c\200323-1\200323-1\I2C_SUB..c" 1
  50  0003              	JMP $
  50  0003              	ENDIF
  50  0003              ;# 50 "F:\Project\Carilex\E-Signal\i2c\200323-1\200323-1\I2C_SUB..c" 1
  50  0003              	IF 5==1
  50  0003              ;# 50 "F:\Project\Carilex\E-Signal\i2c\200323-1\200323-1\I2C_SUB..c" 1
  50  0003              	NOP
  50  0003              	ENDIF
"File: I2C_SUB..c    Assembler  Version HGASM0202      Page 19

  50  0003              ;# 50 "F:\Project\Carilex\E-Signal\i2c\200323-1\200323-1\I2C_SUB..c" 1
  50  0003              	IF 5==2
  50  0003              ;# 50 "F:\Project\Carilex\E-Signal\i2c\200323-1\200323-1\I2C_SUB..c" 1
  50  0003              	NOP
  50  0003              ;# 50 "F:\Project\Carilex\E-Signal\i2c\200323-1\200323-1\I2C_SUB..c" 1
  50  0003              	NOP
  50  0003              	ENDIF
  50  0003              ;# 50 "F:\Project\Carilex\E-Signal\i2c\200323-1\200323-1\I2C_SUB..c" 1
  50  0003              	IF 5==3
  50  0003              ;# 50 "F:\Project\Carilex\E-Signal\i2c\200323-1\200323-1\I2C_SUB..c" 1
  50  0003              	NOP
  50  0003              ;# 50 "F:\Project\Carilex\E-Signal\i2c\200323-1\200323-1\I2C_SUB..c" 1
  50  0003              	NOP
  50  0003              ;# 50 "F:\Project\Carilex\E-Signal\i2c\200323-1\200323-1\I2C_SUB..c" 1
  50  0003              	NOP
  50  0003              	ENDIF
  50  0003              ;# 50 "F:\Project\Carilex\E-Signal\i2c\200323-1\200323-1\I2C_SUB..c" 1
  50  0003              	IF (5<8) AND (5>3)
  50  0003              ;# 50 "F:\Project\Carilex\E-Signal\i2c\200323-1\200323-1\I2C_SUB..c" 1
  50  0003  2000     E  	CALL __DELAY3 + 7 -5
  50  0004              	ENDIF
  50  0004              ;# 50 "F:\Project\Carilex\E-Signal\i2c\200323-1\200323-1\I2C_SUB..c" 1
  50  0004              	IF (5< 0404h) AND (5>7)
  50  0004              ;# 50 "F:\Project\Carilex\E-Signal\i2c\200323-1\200323-1\I2C_SUB..c" 1
  50  0004              	MOV A,5/4-1
  50  0004              ;# 50 "F:\Project\Carilex\E-Signal\i2c\200323-1\200323-1\I2C_SUB..c" 1
  50  0004              	CALL __DELAYX3 + 3 -(5 MOD 4)
  50  0004              	ENDIF
  50  0004              ;# 50 "F:\Project\Carilex\E-Signal\i2c\200323-1\200323-1\I2C_SUB..c" 1
  50  0004              	IF (5< 0x40B) AND (5> 0403h)
  50  0004              ;# 50 "F:\Project\Carilex\E-Signal\i2c\200323-1\200323-1\I2C_SUB..c" 1
  50  0004              	MOV A,0 
  50  0004              ;# 50 "F:\Project\Carilex\E-Signal\i2c\200323-1\200323-1\I2C_SUB..c" 1
  50  0004              	CALL __DELAYX6 + 0x40a -5
  50  0004              	ENDIF
  50  0004              ;# 50 "F:\Project\Carilex\E-Signal\i2c\200323-1\200323-1\I2C_SUB..c" 1
  50  0004              	IF (5 >= 0x40b) AND ((((5-9)%0402h)/4+1)>256)
  50  0004              ;# 50 "F:\Project\Carilex\E-Signal\i2c\200323-1\200323-1\I2C_SUB..c" 1
  50  0004              	MOV A,(5-9)/0402h
  50  0004              ;# 50 "F:\Project\Carilex\E-Signal\i2c\200323-1\200323-1\I2C_SUB..c" 1
  50  0004              	MOV _builtin_holtek_delay_2,A
  50  0004              ;# 50 "F:\Project\Carilex\E-Signal\i2c\200323-1\200323-1\I2C_SUB..c" 1
  50  0004              	MOV A,0
  50  0004              ;# 50 "F:\Project\Carilex\E-Signal\i2c\200323-1\200323-1\I2C_SUB..c" 1
  50  0004              	CALL __DELAYY5 +5- (((5-9)%0402h)%6)
  50  0004              	ENDIF
  50  0004              ;# 50 "F:\Project\Carilex\E-Signal\i2c\200323-1\200323-1\I2C_SUB..c" 1
  50  0004              	IF (5 >= 0x40b) AND ((((5-9)%0402h)/4+1)<=256)
  50  0004              ;# 50 "F:\Project\Carilex\E-Signal\i2c\200323-1\200323-1\I2C_SUB..c" 1
  50  0004              	MOV A,(5-9)/0402h
  50  0004              ;# 50 "F:\Project\Carilex\E-Signal\i2c\200323-1\200323-1\I2C_SUB..c" 1
  50  0004              	MOV _builtin_holtek_delay_2,A
  50  0004              ;# 50 "F:\Project\Carilex\E-Signal\i2c\200323-1\200323-1\I2C_SUB..c" 1
  50  0004              	MOV A,((5-9)%0402h)/4+1
  50  0004              ;# 50 "F:\Project\Carilex\E-Signal\i2c\200323-1\200323-1\I2C_SUB..c" 1
  50  0004              	CALL __DELAYY3 +3-(((5-9)%0402h)%4)
  50  0004              	ENDIF
  51  0004              #line 51 "F:\Project\Carilex\E-Signal\i2c\200323-1\200323-1\I2C_SUB..c"
  51  0004  30A5        	set [37].1
  51  0005              ;# 51 "F:\Project\Carilex\E-Signal\i2c\200323-1\200323-1\I2C_SUB..c" 1
"File: I2C_SUB..c    Assembler  Version HGASM0202      Page 20

  51  0005              	IF 5>263690
  51  0005              ;# 51 "F:\Project\Carilex\E-Signal\i2c\200323-1\200323-1\I2C_SUB..c" 1
  51  0005              	ERRMESSAGE 'the value 5of the argument exceeds the maxinum 263690'
  51  0005              	ENDIF
  51  0005              ;# 51 "F:\Project\Carilex\E-Signal\i2c\200323-1\200323-1\I2C_SUB..c" 1
  51  0005              	IF 5<0
  51  0005              ;# 51 "F:\Project\Carilex\E-Signal\i2c\200323-1\200323-1\I2C_SUB..c" 1
  51  0005              	ERRMESSAGE 'the value 5 of the argument exceeds the mininum 0'
  51  0005              	ENDIF
  51  0005              ;# 51 "F:\Project\Carilex\E-Signal\i2c\200323-1\200323-1\I2C_SUB..c" 1
  51  0005              	IF 5==0
  51  0005              ;# 51 "F:\Project\Carilex\E-Signal\i2c\200323-1\200323-1\I2C_SUB..c" 1
  51  0005              	JMP $
  51  0005              	ENDIF
  51  0005              ;# 51 "F:\Project\Carilex\E-Signal\i2c\200323-1\200323-1\I2C_SUB..c" 1
  51  0005              	IF 5==1
  51  0005              ;# 51 "F:\Project\Carilex\E-Signal\i2c\200323-1\200323-1\I2C_SUB..c" 1
  51  0005              	NOP
  51  0005              	ENDIF
  51  0005              ;# 51 "F:\Project\Carilex\E-Signal\i2c\200323-1\200323-1\I2C_SUB..c" 1
  51  0005              	IF 5==2
  51  0005              ;# 51 "F:\Project\Carilex\E-Signal\i2c\200323-1\200323-1\I2C_SUB..c" 1
  51  0005              	NOP
  51  0005              ;# 51 "F:\Project\Carilex\E-Signal\i2c\200323-1\200323-1\I2C_SUB..c" 1
  51  0005              	NOP
  51  0005              	ENDIF
  51  0005              ;# 51 "F:\Project\Carilex\E-Signal\i2c\200323-1\200323-1\I2C_SUB..c" 1
  51  0005              	IF 5==3
  51  0005              ;# 51 "F:\Project\Carilex\E-Signal\i2c\200323-1\200323-1\I2C_SUB..c" 1
  51  0005              	NOP
  51  0005              ;# 51 "F:\Project\Carilex\E-Signal\i2c\200323-1\200323-1\I2C_SUB..c" 1
  51  0005              	NOP
  51  0005              ;# 51 "F:\Project\Carilex\E-Signal\i2c\200323-1\200323-1\I2C_SUB..c" 1
  51  0005              	NOP
  51  0005              	ENDIF
  51  0005              ;# 51 "F:\Project\Carilex\E-Signal\i2c\200323-1\200323-1\I2C_SUB..c" 1
  51  0005              	IF (5<8) AND (5>3)
  51  0005              ;# 51 "F:\Project\Carilex\E-Signal\i2c\200323-1\200323-1\I2C_SUB..c" 1
  51  0005  2000     E  	CALL __DELAY3 + 7 -5
  51  0006              	ENDIF
  51  0006              ;# 51 "F:\Project\Carilex\E-Signal\i2c\200323-1\200323-1\I2C_SUB..c" 1
  51  0006              	IF (5< 0404h) AND (5>7)
  51  0006              ;# 51 "F:\Project\Carilex\E-Signal\i2c\200323-1\200323-1\I2C_SUB..c" 1
  51  0006              	MOV A,5/4-1
  51  0006              ;# 51 "F:\Project\Carilex\E-Signal\i2c\200323-1\200323-1\I2C_SUB..c" 1
  51  0006              	CALL __DELAYX3 + 3 -(5 MOD 4)
  51  0006              	ENDIF
  51  0006              ;# 51 "F:\Project\Carilex\E-Signal\i2c\200323-1\200323-1\I2C_SUB..c" 1
  51  0006              	IF (5< 0x40B) AND (5> 0403h)
  51  0006              ;# 51 "F:\Project\Carilex\E-Signal\i2c\200323-1\200323-1\I2C_SUB..c" 1
  51  0006              	MOV A,0 
  51  0006              ;# 51 "F:\Project\Carilex\E-Signal\i2c\200323-1\200323-1\I2C_SUB..c" 1
  51  0006              	CALL __DELAYX6 + 0x40a -5
  51  0006              	ENDIF
  51  0006              ;# 51 "F:\Project\Carilex\E-Signal\i2c\200323-1\200323-1\I2C_SUB..c" 1
  51  0006              	IF (5 >= 0x40b) AND ((((5-9)%0402h)/4+1)>256)
  51  0006              ;# 51 "F:\Project\Carilex\E-Signal\i2c\200323-1\200323-1\I2C_SUB..c" 1
  51  0006              	MOV A,(5-9)/0402h
  51  0006              ;# 51 "F:\Project\Carilex\E-Signal\i2c\200323-1\200323-1\I2C_SUB..c" 1
  51  0006              	MOV _builtin_holtek_delay_2,A
"File: I2C_SUB..c    Assembler  Version HGASM0202      Page 21

  51  0006              ;# 51 "F:\Project\Carilex\E-Signal\i2c\200323-1\200323-1\I2C_SUB..c" 1
  51  0006              	MOV A,0
  51  0006              ;# 51 "F:\Project\Carilex\E-Signal\i2c\200323-1\200323-1\I2C_SUB..c" 1
  51  0006              	CALL __DELAYY5 +5- (((5-9)%0402h)%6)
  51  0006              	ENDIF
  51  0006              ;# 51 "F:\Project\Carilex\E-Signal\i2c\200323-1\200323-1\I2C_SUB..c" 1
  51  0006              	IF (5 >= 0x40b) AND ((((5-9)%0402h)/4+1)<=256)
  51  0006              ;# 51 "F:\Project\Carilex\E-Signal\i2c\200323-1\200323-1\I2C_SUB..c" 1
  51  0006              	MOV A,(5-9)/0402h
  51  0006              ;# 51 "F:\Project\Carilex\E-Signal\i2c\200323-1\200323-1\I2C_SUB..c" 1
  51  0006              	MOV _builtin_holtek_delay_2,A
  51  0006              ;# 51 "F:\Project\Carilex\E-Signal\i2c\200323-1\200323-1\I2C_SUB..c" 1
  51  0006              	MOV A,((5-9)%0402h)/4+1
  51  0006              ;# 51 "F:\Project\Carilex\E-Signal\i2c\200323-1\200323-1\I2C_SUB..c" 1
  51  0006              	CALL __DELAYY3 +3-(((5-9)%0402h)%4)
  51  0006              	ENDIF
  52  0006              #line 52 "F:\Project\Carilex\E-Signal\i2c\200323-1\200323-1\I2C_SUB..c"
  52  0006  34A5        	clr [37].1
  52  0007              ;# 52 "F:\Project\Carilex\E-Signal\i2c\200323-1\200323-1\I2C_SUB..c" 1
  52  0007              	IF 5>263690
  52  0007              ;# 52 "F:\Project\Carilex\E-Signal\i2c\200323-1\200323-1\I2C_SUB..c" 1
  52  0007              	ERRMESSAGE 'the value 5of the argument exceeds the maxinum 263690'
  52  0007              	ENDIF
  52  0007              ;# 52 "F:\Project\Carilex\E-Signal\i2c\200323-1\200323-1\I2C_SUB..c" 1
  52  0007              	IF 5<0
  52  0007              ;# 52 "F:\Project\Carilex\E-Signal\i2c\200323-1\200323-1\I2C_SUB..c" 1
  52  0007              	ERRMESSAGE 'the value 5 of the argument exceeds the mininum 0'
  52  0007              	ENDIF
  52  0007              ;# 52 "F:\Project\Carilex\E-Signal\i2c\200323-1\200323-1\I2C_SUB..c" 1
  52  0007              	IF 5==0
  52  0007              ;# 52 "F:\Project\Carilex\E-Signal\i2c\200323-1\200323-1\I2C_SUB..c" 1
  52  0007              	JMP $
  52  0007              	ENDIF
  52  0007              ;# 52 "F:\Project\Carilex\E-Signal\i2c\200323-1\200323-1\I2C_SUB..c" 1
  52  0007              	IF 5==1
  52  0007              ;# 52 "F:\Project\Carilex\E-Signal\i2c\200323-1\200323-1\I2C_SUB..c" 1
  52  0007              	NOP
  52  0007              	ENDIF
  52  0007              ;# 52 "F:\Project\Carilex\E-Signal\i2c\200323-1\200323-1\I2C_SUB..c" 1
  52  0007              	IF 5==2
  52  0007              ;# 52 "F:\Project\Carilex\E-Signal\i2c\200323-1\200323-1\I2C_SUB..c" 1
  52  0007              	NOP
  52  0007              ;# 52 "F:\Project\Carilex\E-Signal\i2c\200323-1\200323-1\I2C_SUB..c" 1
  52  0007              	NOP
  52  0007              	ENDIF
  52  0007              ;# 52 "F:\Project\Carilex\E-Signal\i2c\200323-1\200323-1\I2C_SUB..c" 1
  52  0007              	IF 5==3
  52  0007              ;# 52 "F:\Project\Carilex\E-Signal\i2c\200323-1\200323-1\I2C_SUB..c" 1
  52  0007              	NOP
  52  0007              ;# 52 "F:\Project\Carilex\E-Signal\i2c\200323-1\200323-1\I2C_SUB..c" 1
  52  0007              	NOP
  52  0007              ;# 52 "F:\Project\Carilex\E-Signal\i2c\200323-1\200323-1\I2C_SUB..c" 1
  52  0007              	NOP
  52  0007              	ENDIF
  52  0007              ;# 52 "F:\Project\Carilex\E-Signal\i2c\200323-1\200323-1\I2C_SUB..c" 1
  52  0007              	IF (5<8) AND (5>3)
  52  0007              ;# 52 "F:\Project\Carilex\E-Signal\i2c\200323-1\200323-1\I2C_SUB..c" 1
  52  0007  2000     E  	CALL __DELAY3 + 7 -5
  52  0008              	ENDIF
  52  0008              ;# 52 "F:\Project\Carilex\E-Signal\i2c\200323-1\200323-1\I2C_SUB..c" 1
"File: I2C_SUB..c    Assembler  Version HGASM0202      Page 22

  52  0008              	IF (5< 0404h) AND (5>7)
  52  0008              ;# 52 "F:\Project\Carilex\E-Signal\i2c\200323-1\200323-1\I2C_SUB..c" 1
  52  0008              	MOV A,5/4-1
  52  0008              ;# 52 "F:\Project\Carilex\E-Signal\i2c\200323-1\200323-1\I2C_SUB..c" 1
  52  0008              	CALL __DELAYX3 + 3 -(5 MOD 4)
  52  0008              	ENDIF
  52  0008              ;# 52 "F:\Project\Carilex\E-Signal\i2c\200323-1\200323-1\I2C_SUB..c" 1
  52  0008              	IF (5< 0x40B) AND (5> 0403h)
  52  0008              ;# 52 "F:\Project\Carilex\E-Signal\i2c\200323-1\200323-1\I2C_SUB..c" 1
  52  0008              	MOV A,0 
  52  0008              ;# 52 "F:\Project\Carilex\E-Signal\i2c\200323-1\200323-1\I2C_SUB..c" 1
  52  0008              	CALL __DELAYX6 + 0x40a -5
  52  0008              	ENDIF
  52  0008              ;# 52 "F:\Project\Carilex\E-Signal\i2c\200323-1\200323-1\I2C_SUB..c" 1
  52  0008              	IF (5 >= 0x40b) AND ((((5-9)%0402h)/4+1)>256)
  52  0008              ;# 52 "F:\Project\Carilex\E-Signal\i2c\200323-1\200323-1\I2C_SUB..c" 1
  52  0008              	MOV A,(5-9)/0402h
  52  0008              ;# 52 "F:\Project\Carilex\E-Signal\i2c\200323-1\200323-1\I2C_SUB..c" 1
  52  0008              	MOV _builtin_holtek_delay_2,A
  52  0008              ;# 52 "F:\Project\Carilex\E-Signal\i2c\200323-1\200323-1\I2C_SUB..c" 1
  52  0008              	MOV A,0
  52  0008              ;# 52 "F:\Project\Carilex\E-Signal\i2c\200323-1\200323-1\I2C_SUB..c" 1
  52  0008              	CALL __DELAYY5 +5- (((5-9)%0402h)%6)
  52  0008              	ENDIF
  52  0008              ;# 52 "F:\Project\Carilex\E-Signal\i2c\200323-1\200323-1\I2C_SUB..c" 1
  52  0008              	IF (5 >= 0x40b) AND ((((5-9)%0402h)/4+1)<=256)
  52  0008              ;# 52 "F:\Project\Carilex\E-Signal\i2c\200323-1\200323-1\I2C_SUB..c" 1
  52  0008              	MOV A,(5-9)/0402h
  52  0008              ;# 52 "F:\Project\Carilex\E-Signal\i2c\200323-1\200323-1\I2C_SUB..c" 1
  52  0008              	MOV _builtin_holtek_delay_2,A
  52  0008              ;# 52 "F:\Project\Carilex\E-Signal\i2c\200323-1\200323-1\I2C_SUB..c" 1
  52  0008              	MOV A,((5-9)%0402h)/4+1
  52  0008              ;# 52 "F:\Project\Carilex\E-Signal\i2c\200323-1\200323-1\I2C_SUB..c" 1
  52  0008              	CALL __DELAYY3 +3-(((5-9)%0402h)%4)
  52  0008              	ENDIF
  52  0008  0003        	ret
  52  0009              _NoAck endp
  52  0009              #line 52 "F:\Project\Carilex\E-Signal\i2c\200323-1\200323-1\I2C_SUB..c"
  52  0009              #pragma debug scope 1 1
  52  0009              public _TestAck
  52  0009              #pragma debug scope 6 1
  59  0009              #line 59 "F:\Project\Carilex\E-Signal\i2c\200323-1\200323-1\I2C_SUB..c"
  59  0000              _TestAck .section 'code'
  59  0000              _TestAck proc
  61  0000              #line 61 "F:\Project\Carilex\E-Signal\i2c\200323-1\200323-1\I2C_SUB..c"
  61  0000  3215        	set [21].4
  62  0001              #line 62 "F:\Project\Carilex\E-Signal\i2c\200323-1\200323-1\I2C_SUB..c"
  62  0001  34A6        	clr [38].1
  64  0002              #line 64 "F:\Project\Carilex\E-Signal\i2c\200323-1\200323-1\I2C_SUB..c"
  64  0002  30A5        	set [37].1
  64  0003              ;# 64 "F:\Project\Carilex\E-Signal\i2c\200323-1\200323-1\I2C_SUB..c" 1
  64  0003              	IF 5>263690
  64  0003              ;# 64 "F:\Project\Carilex\E-Signal\i2c\200323-1\200323-1\I2C_SUB..c" 1
  64  0003              	ERRMESSAGE 'the value 5of the argument exceeds the maxinum 263690'
  64  0003              	ENDIF
  64  0003              ;# 64 "F:\Project\Carilex\E-Signal\i2c\200323-1\200323-1\I2C_SUB..c" 1
  64  0003              	IF 5<0
  64  0003              ;# 64 "F:\Project\Carilex\E-Signal\i2c\200323-1\200323-1\I2C_SUB..c" 1
  64  0003              	ERRMESSAGE 'the value 5 of the argument exceeds the mininum 0'
  64  0003              	ENDIF
"File: I2C_SUB..c    Assembler  Version HGASM0202      Page 23

  64  0003              ;# 64 "F:\Project\Carilex\E-Signal\i2c\200323-1\200323-1\I2C_SUB..c" 1
  64  0003              	IF 5==0
  64  0003              ;# 64 "F:\Project\Carilex\E-Signal\i2c\200323-1\200323-1\I2C_SUB..c" 1
  64  0003              	JMP $
  64  0003              	ENDIF
  64  0003              ;# 64 "F:\Project\Carilex\E-Signal\i2c\200323-1\200323-1\I2C_SUB..c" 1
  64  0003              	IF 5==1
  64  0003              ;# 64 "F:\Project\Carilex\E-Signal\i2c\200323-1\200323-1\I2C_SUB..c" 1
  64  0003              	NOP
  64  0003              	ENDIF
  64  0003              ;# 64 "F:\Project\Carilex\E-Signal\i2c\200323-1\200323-1\I2C_SUB..c" 1
  64  0003              	IF 5==2
  64  0003              ;# 64 "F:\Project\Carilex\E-Signal\i2c\200323-1\200323-1\I2C_SUB..c" 1
  64  0003              	NOP
  64  0003              ;# 64 "F:\Project\Carilex\E-Signal\i2c\200323-1\200323-1\I2C_SUB..c" 1
  64  0003              	NOP
  64  0003              	ENDIF
  64  0003              ;# 64 "F:\Project\Carilex\E-Signal\i2c\200323-1\200323-1\I2C_SUB..c" 1
  64  0003              	IF 5==3
  64  0003              ;# 64 "F:\Project\Carilex\E-Signal\i2c\200323-1\200323-1\I2C_SUB..c" 1
  64  0003              	NOP
  64  0003              ;# 64 "F:\Project\Carilex\E-Signal\i2c\200323-1\200323-1\I2C_SUB..c" 1
  64  0003              	NOP
  64  0003              ;# 64 "F:\Project\Carilex\E-Signal\i2c\200323-1\200323-1\I2C_SUB..c" 1
  64  0003              	NOP
  64  0003              	ENDIF
  64  0003              ;# 64 "F:\Project\Carilex\E-Signal\i2c\200323-1\200323-1\I2C_SUB..c" 1
  64  0003              	IF (5<8) AND (5>3)
  64  0003              ;# 64 "F:\Project\Carilex\E-Signal\i2c\200323-1\200323-1\I2C_SUB..c" 1
  64  0003  2000     E  	CALL __DELAY3 + 7 -5
  64  0004              	ENDIF
  64  0004              ;# 64 "F:\Project\Carilex\E-Signal\i2c\200323-1\200323-1\I2C_SUB..c" 1
  64  0004              	IF (5< 0404h) AND (5>7)
  64  0004              ;# 64 "F:\Project\Carilex\E-Signal\i2c\200323-1\200323-1\I2C_SUB..c" 1
  64  0004              	MOV A,5/4-1
  64  0004              ;# 64 "F:\Project\Carilex\E-Signal\i2c\200323-1\200323-1\I2C_SUB..c" 1
  64  0004              	CALL __DELAYX3 + 3 -(5 MOD 4)
  64  0004              	ENDIF
  64  0004              ;# 64 "F:\Project\Carilex\E-Signal\i2c\200323-1\200323-1\I2C_SUB..c" 1
  64  0004              	IF (5< 0x40B) AND (5> 0403h)
  64  0004              ;# 64 "F:\Project\Carilex\E-Signal\i2c\200323-1\200323-1\I2C_SUB..c" 1
  64  0004              	MOV A,0 
  64  0004              ;# 64 "F:\Project\Carilex\E-Signal\i2c\200323-1\200323-1\I2C_SUB..c" 1
  64  0004              	CALL __DELAYX6 + 0x40a -5
  64  0004              	ENDIF
  64  0004              ;# 64 "F:\Project\Carilex\E-Signal\i2c\200323-1\200323-1\I2C_SUB..c" 1
  64  0004              	IF (5 >= 0x40b) AND ((((5-9)%0402h)/4+1)>256)
  64  0004              ;# 64 "F:\Project\Carilex\E-Signal\i2c\200323-1\200323-1\I2C_SUB..c" 1
  64  0004              	MOV A,(5-9)/0402h
  64  0004              ;# 64 "F:\Project\Carilex\E-Signal\i2c\200323-1\200323-1\I2C_SUB..c" 1
  64  0004              	MOV _builtin_holtek_delay_2,A
  64  0004              ;# 64 "F:\Project\Carilex\E-Signal\i2c\200323-1\200323-1\I2C_SUB..c" 1
  64  0004              	MOV A,0
  64  0004              ;# 64 "F:\Project\Carilex\E-Signal\i2c\200323-1\200323-1\I2C_SUB..c" 1
  64  0004              	CALL __DELAYY5 +5- (((5-9)%0402h)%6)
  64  0004              	ENDIF
  64  0004              ;# 64 "F:\Project\Carilex\E-Signal\i2c\200323-1\200323-1\I2C_SUB..c" 1
  64  0004              	IF (5 >= 0x40b) AND ((((5-9)%0402h)/4+1)<=256)
  64  0004              ;# 64 "F:\Project\Carilex\E-Signal\i2c\200323-1\200323-1\I2C_SUB..c" 1
  64  0004              	MOV A,(5-9)/0402h
"File: I2C_SUB..c    Assembler  Version HGASM0202      Page 24

  64  0004              ;# 64 "F:\Project\Carilex\E-Signal\i2c\200323-1\200323-1\I2C_SUB..c" 1
  64  0004              	MOV _builtin_holtek_delay_2,A
  64  0004              ;# 64 "F:\Project\Carilex\E-Signal\i2c\200323-1\200323-1\I2C_SUB..c" 1
  64  0004              	MOV A,((5-9)%0402h)/4+1
  64  0004              ;# 64 "F:\Project\Carilex\E-Signal\i2c\200323-1\200323-1\I2C_SUB..c" 1
  64  0004              	CALL __DELAYY3 +3-(((5-9)%0402h)%4)
  64  0004              	ENDIF
  65  0004              #line 65 "F:\Project\Carilex\E-Signal\i2c\200323-1\200323-1\I2C_SUB..c"
  65  0004  1F00     E  	clr ra
  65  0005  3E14        	sz [20].4
  65  0006  1480     E  	inc ra
  65  0007              ;# 65 "F:\Project\Carilex\E-Signal\i2c\200323-1\200323-1\I2C_SUB..c" 1
  65  0007              	IF 5>263690
  65  0007              ;# 65 "F:\Project\Carilex\E-Signal\i2c\200323-1\200323-1\I2C_SUB..c" 1
  65  0007              	ERRMESSAGE 'the value 5of the argument exceeds the maxinum 263690'
  65  0007              	ENDIF
  65  0007              ;# 65 "F:\Project\Carilex\E-Signal\i2c\200323-1\200323-1\I2C_SUB..c" 1
  65  0007              	IF 5<0
  65  0007              ;# 65 "F:\Project\Carilex\E-Signal\i2c\200323-1\200323-1\I2C_SUB..c" 1
  65  0007              	ERRMESSAGE 'the value 5 of the argument exceeds the mininum 0'
  65  0007              	ENDIF
  65  0007              ;# 65 "F:\Project\Carilex\E-Signal\i2c\200323-1\200323-1\I2C_SUB..c" 1
  65  0007              	IF 5==0
  65  0007              ;# 65 "F:\Project\Carilex\E-Signal\i2c\200323-1\200323-1\I2C_SUB..c" 1
  65  0007              	JMP $
  65  0007              	ENDIF
  65  0007              ;# 65 "F:\Project\Carilex\E-Signal\i2c\200323-1\200323-1\I2C_SUB..c" 1
  65  0007              	IF 5==1
  65  0007              ;# 65 "F:\Project\Carilex\E-Signal\i2c\200323-1\200323-1\I2C_SUB..c" 1
  65  0007              	NOP
  65  0007              	ENDIF
  65  0007              ;# 65 "F:\Project\Carilex\E-Signal\i2c\200323-1\200323-1\I2C_SUB..c" 1
  65  0007              	IF 5==2
  65  0007              ;# 65 "F:\Project\Carilex\E-Signal\i2c\200323-1\200323-1\I2C_SUB..c" 1
  65  0007              	NOP
  65  0007              ;# 65 "F:\Project\Carilex\E-Signal\i2c\200323-1\200323-1\I2C_SUB..c" 1
  65  0007              	NOP
  65  0007              	ENDIF
  65  0007              ;# 65 "F:\Project\Carilex\E-Signal\i2c\200323-1\200323-1\I2C_SUB..c" 1
  65  0007              	IF 5==3
  65  0007              ;# 65 "F:\Project\Carilex\E-Signal\i2c\200323-1\200323-1\I2C_SUB..c" 1
  65  0007              	NOP
  65  0007              ;# 65 "F:\Project\Carilex\E-Signal\i2c\200323-1\200323-1\I2C_SUB..c" 1
  65  0007              	NOP
  65  0007              ;# 65 "F:\Project\Carilex\E-Signal\i2c\200323-1\200323-1\I2C_SUB..c" 1
  65  0007              	NOP
  65  0007              	ENDIF
  65  0007              ;# 65 "F:\Project\Carilex\E-Signal\i2c\200323-1\200323-1\I2C_SUB..c" 1
  65  0007              	IF (5<8) AND (5>3)
  65  0007              ;# 65 "F:\Project\Carilex\E-Signal\i2c\200323-1\200323-1\I2C_SUB..c" 1
  65  0007  2000     E  	CALL __DELAY3 + 7 -5
  65  0008              	ENDIF
  65  0008              ;# 65 "F:\Project\Carilex\E-Signal\i2c\200323-1\200323-1\I2C_SUB..c" 1
  65  0008              	IF (5< 0404h) AND (5>7)
  65  0008              ;# 65 "F:\Project\Carilex\E-Signal\i2c\200323-1\200323-1\I2C_SUB..c" 1
  65  0008              	MOV A,5/4-1
  65  0008              ;# 65 "F:\Project\Carilex\E-Signal\i2c\200323-1\200323-1\I2C_SUB..c" 1
  65  0008              	CALL __DELAYX3 + 3 -(5 MOD 4)
  65  0008              	ENDIF
  65  0008              ;# 65 "F:\Project\Carilex\E-Signal\i2c\200323-1\200323-1\I2C_SUB..c" 1
"File: I2C_SUB..c    Assembler  Version HGASM0202      Page 25

  65  0008              	IF (5< 0x40B) AND (5> 0403h)
  65  0008              ;# 65 "F:\Project\Carilex\E-Signal\i2c\200323-1\200323-1\I2C_SUB..c" 1
  65  0008              	MOV A,0 
  65  0008              ;# 65 "F:\Project\Carilex\E-Signal\i2c\200323-1\200323-1\I2C_SUB..c" 1
  65  0008              	CALL __DELAYX6 + 0x40a -5
  65  0008              	ENDIF
  65  0008              ;# 65 "F:\Project\Carilex\E-Signal\i2c\200323-1\200323-1\I2C_SUB..c" 1
  65  0008              	IF (5 >= 0x40b) AND ((((5-9)%0402h)/4+1)>256)
  65  0008              ;# 65 "F:\Project\Carilex\E-Signal\i2c\200323-1\200323-1\I2C_SUB..c" 1
  65  0008              	MOV A,(5-9)/0402h
  65  0008              ;# 65 "F:\Project\Carilex\E-Signal\i2c\200323-1\200323-1\I2C_SUB..c" 1
  65  0008              	MOV _builtin_holtek_delay_2,A
  65  0008              ;# 65 "F:\Project\Carilex\E-Signal\i2c\200323-1\200323-1\I2C_SUB..c" 1
  65  0008              	MOV A,0
  65  0008              ;# 65 "F:\Project\Carilex\E-Signal\i2c\200323-1\200323-1\I2C_SUB..c" 1
  65  0008              	CALL __DELAYY5 +5- (((5-9)%0402h)%6)
  65  0008              	ENDIF
  65  0008              ;# 65 "F:\Project\Carilex\E-Signal\i2c\200323-1\200323-1\I2C_SUB..c" 1
  65  0008              	IF (5 >= 0x40b) AND ((((5-9)%0402h)/4+1)<=256)
  65  0008              ;# 65 "F:\Project\Carilex\E-Signal\i2c\200323-1\200323-1\I2C_SUB..c" 1
  65  0008              	MOV A,(5-9)/0402h
  65  0008              ;# 65 "F:\Project\Carilex\E-Signal\i2c\200323-1\200323-1\I2C_SUB..c" 1
  65  0008              	MOV _builtin_holtek_delay_2,A
  65  0008              ;# 65 "F:\Project\Carilex\E-Signal\i2c\200323-1\200323-1\I2C_SUB..c" 1
  65  0008              	MOV A,((5-9)%0402h)/4+1
  65  0008              ;# 65 "F:\Project\Carilex\E-Signal\i2c\200323-1\200323-1\I2C_SUB..c" 1
  65  0008              	CALL __DELAYY3 +3-(((5-9)%0402h)%4)
  65  0008              	ENDIF
  66  0008              #line 66 "F:\Project\Carilex\E-Signal\i2c\200323-1\200323-1\I2C_SUB..c"
  66  0008  34A5        	clr [37].1
  66  0009              ;# 66 "F:\Project\Carilex\E-Signal\i2c\200323-1\200323-1\I2C_SUB..c" 1
  66  0009              	IF 5>263690
  66  0009              ;# 66 "F:\Project\Carilex\E-Signal\i2c\200323-1\200323-1\I2C_SUB..c" 1
  66  0009              	ERRMESSAGE 'the value 5of the argument exceeds the maxinum 263690'
  66  0009              	ENDIF
  66  0009              ;# 66 "F:\Project\Carilex\E-Signal\i2c\200323-1\200323-1\I2C_SUB..c" 1
  66  0009              	IF 5<0
  66  0009              ;# 66 "F:\Project\Carilex\E-Signal\i2c\200323-1\200323-1\I2C_SUB..c" 1
  66  0009              	ERRMESSAGE 'the value 5 of the argument exceeds the mininum 0'
  66  0009              	ENDIF
  66  0009              ;# 66 "F:\Project\Carilex\E-Signal\i2c\200323-1\200323-1\I2C_SUB..c" 1
  66  0009              	IF 5==0
  66  0009              ;# 66 "F:\Project\Carilex\E-Signal\i2c\200323-1\200323-1\I2C_SUB..c" 1
  66  0009              	JMP $
  66  0009              	ENDIF
  66  0009              ;# 66 "F:\Project\Carilex\E-Signal\i2c\200323-1\200323-1\I2C_SUB..c" 1
  66  0009              	IF 5==1
  66  0009              ;# 66 "F:\Project\Carilex\E-Signal\i2c\200323-1\200323-1\I2C_SUB..c" 1
  66  0009              	NOP
  66  0009              	ENDIF
  66  0009              ;# 66 "F:\Project\Carilex\E-Signal\i2c\200323-1\200323-1\I2C_SUB..c" 1
  66  0009              	IF 5==2
  66  0009              ;# 66 "F:\Project\Carilex\E-Signal\i2c\200323-1\200323-1\I2C_SUB..c" 1
  66  0009              	NOP
  66  0009              ;# 66 "F:\Project\Carilex\E-Signal\i2c\200323-1\200323-1\I2C_SUB..c" 1
  66  0009              	NOP
  66  0009              	ENDIF
  66  0009              ;# 66 "F:\Project\Carilex\E-Signal\i2c\200323-1\200323-1\I2C_SUB..c" 1
  66  0009              	IF 5==3
  66  0009              ;# 66 "F:\Project\Carilex\E-Signal\i2c\200323-1\200323-1\I2C_SUB..c" 1
"File: I2C_SUB..c    Assembler  Version HGASM0202      Page 26

  66  0009              	NOP
  66  0009              ;# 66 "F:\Project\Carilex\E-Signal\i2c\200323-1\200323-1\I2C_SUB..c" 1
  66  0009              	NOP
  66  0009              ;# 66 "F:\Project\Carilex\E-Signal\i2c\200323-1\200323-1\I2C_SUB..c" 1
  66  0009              	NOP
  66  0009              	ENDIF
  66  0009              ;# 66 "F:\Project\Carilex\E-Signal\i2c\200323-1\200323-1\I2C_SUB..c" 1
  66  0009              	IF (5<8) AND (5>3)
  66  0009              ;# 66 "F:\Project\Carilex\E-Signal\i2c\200323-1\200323-1\I2C_SUB..c" 1
  66  0009  2000     E  	CALL __DELAY3 + 7 -5
  66  000A              	ENDIF
  66  000A              ;# 66 "F:\Project\Carilex\E-Signal\i2c\200323-1\200323-1\I2C_SUB..c" 1
  66  000A              	IF (5< 0404h) AND (5>7)
  66  000A              ;# 66 "F:\Project\Carilex\E-Signal\i2c\200323-1\200323-1\I2C_SUB..c" 1
  66  000A              	MOV A,5/4-1
  66  000A              ;# 66 "F:\Project\Carilex\E-Signal\i2c\200323-1\200323-1\I2C_SUB..c" 1
  66  000A              	CALL __DELAYX3 + 3 -(5 MOD 4)
  66  000A              	ENDIF
  66  000A              ;# 66 "F:\Project\Carilex\E-Signal\i2c\200323-1\200323-1\I2C_SUB..c" 1
  66  000A              	IF (5< 0x40B) AND (5> 0403h)
  66  000A              ;# 66 "F:\Project\Carilex\E-Signal\i2c\200323-1\200323-1\I2C_SUB..c" 1
  66  000A              	MOV A,0 
  66  000A              ;# 66 "F:\Project\Carilex\E-Signal\i2c\200323-1\200323-1\I2C_SUB..c" 1
  66  000A              	CALL __DELAYX6 + 0x40a -5
  66  000A              	ENDIF
  66  000A              ;# 66 "F:\Project\Carilex\E-Signal\i2c\200323-1\200323-1\I2C_SUB..c" 1
  66  000A              	IF (5 >= 0x40b) AND ((((5-9)%0402h)/4+1)>256)
  66  000A              ;# 66 "F:\Project\Carilex\E-Signal\i2c\200323-1\200323-1\I2C_SUB..c" 1
  66  000A              	MOV A,(5-9)/0402h
  66  000A              ;# 66 "F:\Project\Carilex\E-Signal\i2c\200323-1\200323-1\I2C_SUB..c" 1
  66  000A              	MOV _builtin_holtek_delay_2,A
  66  000A              ;# 66 "F:\Project\Carilex\E-Signal\i2c\200323-1\200323-1\I2C_SUB..c" 1
  66  000A              	MOV A,0
  66  000A              ;# 66 "F:\Project\Carilex\E-Signal\i2c\200323-1\200323-1\I2C_SUB..c" 1
  66  000A              	CALL __DELAYY5 +5- (((5-9)%0402h)%6)
  66  000A              	ENDIF
  66  000A              ;# 66 "F:\Project\Carilex\E-Signal\i2c\200323-1\200323-1\I2C_SUB..c" 1
  66  000A              	IF (5 >= 0x40b) AND ((((5-9)%0402h)/4+1)<=256)
  66  000A              ;# 66 "F:\Project\Carilex\E-Signal\i2c\200323-1\200323-1\I2C_SUB..c" 1
  66  000A              	MOV A,(5-9)/0402h
  66  000A              ;# 66 "F:\Project\Carilex\E-Signal\i2c\200323-1\200323-1\I2C_SUB..c" 1
  66  000A              	MOV _builtin_holtek_delay_2,A
  66  000A              ;# 66 "F:\Project\Carilex\E-Signal\i2c\200323-1\200323-1\I2C_SUB..c" 1
  66  000A              	MOV A,((5-9)%0402h)/4+1
  66  000A              ;# 66 "F:\Project\Carilex\E-Signal\i2c\200323-1\200323-1\I2C_SUB..c" 1
  66  000A              	CALL __DELAYY3 +3-(((5-9)%0402h)%4)
  66  000A              	ENDIF
  67  000A              #line 67 "F:\Project\Carilex\E-Signal\i2c\200323-1\200323-1\I2C_SUB..c"
  67  000A  3615        	clr [21].4
  69  000B              #line 69 "F:\Project\Carilex\E-Signal\i2c\200323-1\200323-1\I2C_SUB..c"
  69  000B  0700     E  	mov a,ra
  69  000C  0003        	ret
  69  000D              _TestAck endp
  69  000D              #line 69 "F:\Project\Carilex\E-Signal\i2c\200323-1\200323-1\I2C_SUB..c"
  69  000D              #pragma debug scope 1 1
  69  000D              public _i2cWrite
  69  000D              #pragma debug scope 7 1
  74  000D              #line 74 "F:\Project\Carilex\E-Signal\i2c\200323-1\200323-1\I2C_SUB..c"
  74  0000              _i2cWrite .section 'code'
  74  0000              _i2cWrite proc
"File: I2C_SUB..c    Assembler  Version HGASM0202      Page 27

  74  0000  00              local _i2cWrite_2 db 1 dup(?)	; 0,1
  74  0000  0080     R  	mov _i2cWrite_2[0],a
  74  0001              #pragma debug variable 8 7 _i2cWrite_2+0 "Data"
  76  0001              #line 76 "F:\Project\Carilex\E-Signal\i2c\200323-1\200323-1\I2C_SUB..c"
  76  0001  3615        	clr [21].4
  77  0002              #line 77 "F:\Project\Carilex\E-Signal\i2c\200323-1\200323-1\I2C_SUB..c"
  77  0002  34A6        	clr [38].1
  78  0003              #line 78 "F:\Project\Carilex\E-Signal\i2c\200323-1\200323-1\I2C_SUB..c"
  78  0003  0F09        	mov a,9
  78  0004  0080     E  	mov ra,a
  78  0005  2800     R  	jmp _L7
  78  0006              _L8:
  80  0006              #line 80 "F:\Project\Carilex\E-Signal\i2c\200323-1\200323-1\I2C_SUB..c"
  80  0006  1800     R  	rla _i2cWrite_2[0]
  80  0007  0E01        	and a,1
  80  0008  0080     E  	mov rb,a
  80  0009  1100     E  	swapa rb
  80  000A  0EF0        	and a,0f0h 
  80  000B  0080     E  	mov rb,a
  80  000C  3614        	clr [20].4
  80  000D  0700     E  	mov a,rb
  80  000E  0594        	orm a,[20]
  81  000F              #line 81 "F:\Project\Carilex\E-Signal\i2c\200323-1\200323-1\I2C_SUB..c"
  81  000F              ;# 81 "F:\Project\Carilex\E-Signal\i2c\200323-1\200323-1\I2C_SUB..c" 1
  81  000F              	IF 5>263690
  81  000F              ;# 81 "F:\Project\Carilex\E-Signal\i2c\200323-1\200323-1\I2C_SUB..c" 1
  81  000F              	ERRMESSAGE 'the value 5of the argument exceeds the maxinum 263690'
  81  000F              	ENDIF
  81  000F              ;# 81 "F:\Project\Carilex\E-Signal\i2c\200323-1\200323-1\I2C_SUB..c" 1
  81  000F              	IF 5<0
  81  000F              ;# 81 "F:\Project\Carilex\E-Signal\i2c\200323-1\200323-1\I2C_SUB..c" 1
  81  000F              	ERRMESSAGE 'the value 5 of the argument exceeds the mininum 0'
  81  000F              	ENDIF
  81  000F              ;# 81 "F:\Project\Carilex\E-Signal\i2c\200323-1\200323-1\I2C_SUB..c" 1
  81  000F              	IF 5==0
  81  000F              ;# 81 "F:\Project\Carilex\E-Signal\i2c\200323-1\200323-1\I2C_SUB..c" 1
  81  000F              	JMP $
  81  000F              	ENDIF
  81  000F              ;# 81 "F:\Project\Carilex\E-Signal\i2c\200323-1\200323-1\I2C_SUB..c" 1
  81  000F              	IF 5==1
  81  000F              ;# 81 "F:\Project\Carilex\E-Signal\i2c\200323-1\200323-1\I2C_SUB..c" 1
  81  000F              	NOP
  81  000F              	ENDIF
  81  000F              ;# 81 "F:\Project\Carilex\E-Signal\i2c\200323-1\200323-1\I2C_SUB..c" 1
  81  000F              	IF 5==2
  81  000F              ;# 81 "F:\Project\Carilex\E-Signal\i2c\200323-1\200323-1\I2C_SUB..c" 1
  81  000F              	NOP
  81  000F              ;# 81 "F:\Project\Carilex\E-Signal\i2c\200323-1\200323-1\I2C_SUB..c" 1
  81  000F              	NOP
  81  000F              	ENDIF
  81  000F              ;# 81 "F:\Project\Carilex\E-Signal\i2c\200323-1\200323-1\I2C_SUB..c" 1
  81  000F              	IF 5==3
  81  000F              ;# 81 "F:\Project\Carilex\E-Signal\i2c\200323-1\200323-1\I2C_SUB..c" 1
  81  000F              	NOP
  81  000F              ;# 81 "F:\Project\Carilex\E-Signal\i2c\200323-1\200323-1\I2C_SUB..c" 1
  81  000F              	NOP
  81  000F              ;# 81 "F:\Project\Carilex\E-Signal\i2c\200323-1\200323-1\I2C_SUB..c" 1
  81  000F              	NOP
  81  000F              	ENDIF
  81  000F              ;# 81 "F:\Project\Carilex\E-Signal\i2c\200323-1\200323-1\I2C_SUB..c" 1
"File: I2C_SUB..c    Assembler  Version HGASM0202      Page 28

  81  000F              	IF (5<8) AND (5>3)
  81  000F              ;# 81 "F:\Project\Carilex\E-Signal\i2c\200323-1\200323-1\I2C_SUB..c" 1
  81  000F  2000     E  	CALL __DELAY3 + 7 -5
  81  0010              	ENDIF
  81  0010              ;# 81 "F:\Project\Carilex\E-Signal\i2c\200323-1\200323-1\I2C_SUB..c" 1
  81  0010              	IF (5< 0404h) AND (5>7)
  81  0010              ;# 81 "F:\Project\Carilex\E-Signal\i2c\200323-1\200323-1\I2C_SUB..c" 1
  81  0010              	MOV A,5/4-1
  81  0010              ;# 81 "F:\Project\Carilex\E-Signal\i2c\200323-1\200323-1\I2C_SUB..c" 1
  81  0010              	CALL __DELAYX3 + 3 -(5 MOD 4)
  81  0010              	ENDIF
  81  0010              ;# 81 "F:\Project\Carilex\E-Signal\i2c\200323-1\200323-1\I2C_SUB..c" 1
  81  0010              	IF (5< 0x40B) AND (5> 0403h)
  81  0010              ;# 81 "F:\Project\Carilex\E-Signal\i2c\200323-1\200323-1\I2C_SUB..c" 1
  81  0010              	MOV A,0 
  81  0010              ;# 81 "F:\Project\Carilex\E-Signal\i2c\200323-1\200323-1\I2C_SUB..c" 1
  81  0010              	CALL __DELAYX6 + 0x40a -5
  81  0010              	ENDIF
  81  0010              ;# 81 "F:\Project\Carilex\E-Signal\i2c\200323-1\200323-1\I2C_SUB..c" 1
  81  0010              	IF (5 >= 0x40b) AND ((((5-9)%0402h)/4+1)>256)
  81  0010              ;# 81 "F:\Project\Carilex\E-Signal\i2c\200323-1\200323-1\I2C_SUB..c" 1
  81  0010              	MOV A,(5-9)/0402h
  81  0010              ;# 81 "F:\Project\Carilex\E-Signal\i2c\200323-1\200323-1\I2C_SUB..c" 1
  81  0010              	MOV _builtin_holtek_delay_2,A
  81  0010              ;# 81 "F:\Project\Carilex\E-Signal\i2c\200323-1\200323-1\I2C_SUB..c" 1
  81  0010              	MOV A,0
  81  0010              ;# 81 "F:\Project\Carilex\E-Signal\i2c\200323-1\200323-1\I2C_SUB..c" 1
  81  0010              	CALL __DELAYY5 +5- (((5-9)%0402h)%6)
  81  0010              	ENDIF
  81  0010              ;# 81 "F:\Project\Carilex\E-Signal\i2c\200323-1\200323-1\I2C_SUB..c" 1
  81  0010              	IF (5 >= 0x40b) AND ((((5-9)%0402h)/4+1)<=256)
  81  0010              ;# 81 "F:\Project\Carilex\E-Signal\i2c\200323-1\200323-1\I2C_SUB..c" 1
  81  0010              	MOV A,(5-9)/0402h
  81  0010              ;# 81 "F:\Project\Carilex\E-Signal\i2c\200323-1\200323-1\I2C_SUB..c" 1
  81  0010              	MOV _builtin_holtek_delay_2,A
  81  0010              ;# 81 "F:\Project\Carilex\E-Signal\i2c\200323-1\200323-1\I2C_SUB..c" 1
  81  0010              	MOV A,((5-9)%0402h)/4+1
  81  0010              ;# 81 "F:\Project\Carilex\E-Signal\i2c\200323-1\200323-1\I2C_SUB..c" 1
  81  0010              	CALL __DELAYY3 +3-(((5-9)%0402h)%4)
  81  0010              	ENDIF
  82  0010              #line 82 "F:\Project\Carilex\E-Signal\i2c\200323-1\200323-1\I2C_SUB..c"
  82  0010  30A5        	set [37].1
  82  0011              ;# 82 "F:\Project\Carilex\E-Signal\i2c\200323-1\200323-1\I2C_SUB..c" 1
  82  0011              	IF 5>263690
  82  0011              ;# 82 "F:\Project\Carilex\E-Signal\i2c\200323-1\200323-1\I2C_SUB..c" 1
  82  0011              	ERRMESSAGE 'the value 5of the argument exceeds the maxinum 263690'
  82  0011              	ENDIF
  82  0011              ;# 82 "F:\Project\Carilex\E-Signal\i2c\200323-1\200323-1\I2C_SUB..c" 1
  82  0011              	IF 5<0
  82  0011              ;# 82 "F:\Project\Carilex\E-Signal\i2c\200323-1\200323-1\I2C_SUB..c" 1
  82  0011              	ERRMESSAGE 'the value 5 of the argument exceeds the mininum 0'
  82  0011              	ENDIF
  82  0011              ;# 82 "F:\Project\Carilex\E-Signal\i2c\200323-1\200323-1\I2C_SUB..c" 1
  82  0011              	IF 5==0
  82  0011              ;# 82 "F:\Project\Carilex\E-Signal\i2c\200323-1\200323-1\I2C_SUB..c" 1
  82  0011              	JMP $
  82  0011              	ENDIF
  82  0011              ;# 82 "F:\Project\Carilex\E-Signal\i2c\200323-1\200323-1\I2C_SUB..c" 1
  82  0011              	IF 5==1
  82  0011              ;# 82 "F:\Project\Carilex\E-Signal\i2c\200323-1\200323-1\I2C_SUB..c" 1
"File: I2C_SUB..c    Assembler  Version HGASM0202      Page 29

  82  0011              	NOP
  82  0011              	ENDIF
  82  0011              ;# 82 "F:\Project\Carilex\E-Signal\i2c\200323-1\200323-1\I2C_SUB..c" 1
  82  0011              	IF 5==2
  82  0011              ;# 82 "F:\Project\Carilex\E-Signal\i2c\200323-1\200323-1\I2C_SUB..c" 1
  82  0011              	NOP
  82  0011              ;# 82 "F:\Project\Carilex\E-Signal\i2c\200323-1\200323-1\I2C_SUB..c" 1
  82  0011              	NOP
  82  0011              	ENDIF
  82  0011              ;# 82 "F:\Project\Carilex\E-Signal\i2c\200323-1\200323-1\I2C_SUB..c" 1
  82  0011              	IF 5==3
  82  0011              ;# 82 "F:\Project\Carilex\E-Signal\i2c\200323-1\200323-1\I2C_SUB..c" 1
  82  0011              	NOP
  82  0011              ;# 82 "F:\Project\Carilex\E-Signal\i2c\200323-1\200323-1\I2C_SUB..c" 1
  82  0011              	NOP
  82  0011              ;# 82 "F:\Project\Carilex\E-Signal\i2c\200323-1\200323-1\I2C_SUB..c" 1
  82  0011              	NOP
  82  0011              	ENDIF
  82  0011              ;# 82 "F:\Project\Carilex\E-Signal\i2c\200323-1\200323-1\I2C_SUB..c" 1
  82  0011              	IF (5<8) AND (5>3)
  82  0011              ;# 82 "F:\Project\Carilex\E-Signal\i2c\200323-1\200323-1\I2C_SUB..c" 1
  82  0011  2000     E  	CALL __DELAY3 + 7 -5
  82  0012              	ENDIF
  82  0012              ;# 82 "F:\Project\Carilex\E-Signal\i2c\200323-1\200323-1\I2C_SUB..c" 1
  82  0012              	IF (5< 0404h) AND (5>7)
  82  0012              ;# 82 "F:\Project\Carilex\E-Signal\i2c\200323-1\200323-1\I2C_SUB..c" 1
  82  0012              	MOV A,5/4-1
  82  0012              ;# 82 "F:\Project\Carilex\E-Signal\i2c\200323-1\200323-1\I2C_SUB..c" 1
  82  0012              	CALL __DELAYX3 + 3 -(5 MOD 4)
  82  0012              	ENDIF
  82  0012              ;# 82 "F:\Project\Carilex\E-Signal\i2c\200323-1\200323-1\I2C_SUB..c" 1
  82  0012              	IF (5< 0x40B) AND (5> 0403h)
  82  0012              ;# 82 "F:\Project\Carilex\E-Signal\i2c\200323-1\200323-1\I2C_SUB..c" 1
  82  0012              	MOV A,0 
  82  0012              ;# 82 "F:\Project\Carilex\E-Signal\i2c\200323-1\200323-1\I2C_SUB..c" 1
  82  0012              	CALL __DELAYX6 + 0x40a -5
  82  0012              	ENDIF
  82  0012              ;# 82 "F:\Project\Carilex\E-Signal\i2c\200323-1\200323-1\I2C_SUB..c" 1
  82  0012              	IF (5 >= 0x40b) AND ((((5-9)%0402h)/4+1)>256)
  82  0012              ;# 82 "F:\Project\Carilex\E-Signal\i2c\200323-1\200323-1\I2C_SUB..c" 1
  82  0012              	MOV A,(5-9)/0402h
  82  0012              ;# 82 "F:\Project\Carilex\E-Signal\i2c\200323-1\200323-1\I2C_SUB..c" 1
  82  0012              	MOV _builtin_holtek_delay_2,A
  82  0012              ;# 82 "F:\Project\Carilex\E-Signal\i2c\200323-1\200323-1\I2C_SUB..c" 1
  82  0012              	MOV A,0
  82  0012              ;# 82 "F:\Project\Carilex\E-Signal\i2c\200323-1\200323-1\I2C_SUB..c" 1
  82  0012              	CALL __DELAYY5 +5- (((5-9)%0402h)%6)
  82  0012              	ENDIF
  82  0012              ;# 82 "F:\Project\Carilex\E-Signal\i2c\200323-1\200323-1\I2C_SUB..c" 1
  82  0012              	IF (5 >= 0x40b) AND ((((5-9)%0402h)/4+1)<=256)
  82  0012              ;# 82 "F:\Project\Carilex\E-Signal\i2c\200323-1\200323-1\I2C_SUB..c" 1
  82  0012              	MOV A,(5-9)/0402h
  82  0012              ;# 82 "F:\Project\Carilex\E-Signal\i2c\200323-1\200323-1\I2C_SUB..c" 1
  82  0012              	MOV _builtin_holtek_delay_2,A
  82  0012              ;# 82 "F:\Project\Carilex\E-Signal\i2c\200323-1\200323-1\I2C_SUB..c" 1
  82  0012              	MOV A,((5-9)%0402h)/4+1
  82  0012              ;# 82 "F:\Project\Carilex\E-Signal\i2c\200323-1\200323-1\I2C_SUB..c" 1
  82  0012              	CALL __DELAYY3 +3-(((5-9)%0402h)%4)
  82  0012              	ENDIF
  83  0012              #line 83 "F:\Project\Carilex\E-Signal\i2c\200323-1\200323-1\I2C_SUB..c"
"File: I2C_SUB..c    Assembler  Version HGASM0202      Page 30

  83  0012  34A5        	clr [37].1
  83  0013              ;# 83 "F:\Project\Carilex\E-Signal\i2c\200323-1\200323-1\I2C_SUB..c" 1
  83  0013              	IF 5>263690
  83  0013              ;# 83 "F:\Project\Carilex\E-Signal\i2c\200323-1\200323-1\I2C_SUB..c" 1
  83  0013              	ERRMESSAGE 'the value 5of the argument exceeds the maxinum 263690'
  83  0013              	ENDIF
  83  0013              ;# 83 "F:\Project\Carilex\E-Signal\i2c\200323-1\200323-1\I2C_SUB..c" 1
  83  0013              	IF 5<0
  83  0013              ;# 83 "F:\Project\Carilex\E-Signal\i2c\200323-1\200323-1\I2C_SUB..c" 1
  83  0013              	ERRMESSAGE 'the value 5 of the argument exceeds the mininum 0'
  83  0013              	ENDIF
  83  0013              ;# 83 "F:\Project\Carilex\E-Signal\i2c\200323-1\200323-1\I2C_SUB..c" 1
  83  0013              	IF 5==0
  83  0013              ;# 83 "F:\Project\Carilex\E-Signal\i2c\200323-1\200323-1\I2C_SUB..c" 1
  83  0013              	JMP $
  83  0013              	ENDIF
  83  0013              ;# 83 "F:\Project\Carilex\E-Signal\i2c\200323-1\200323-1\I2C_SUB..c" 1
  83  0013              	IF 5==1
  83  0013              ;# 83 "F:\Project\Carilex\E-Signal\i2c\200323-1\200323-1\I2C_SUB..c" 1
  83  0013              	NOP
  83  0013              	ENDIF
  83  0013              ;# 83 "F:\Project\Carilex\E-Signal\i2c\200323-1\200323-1\I2C_SUB..c" 1
  83  0013              	IF 5==2
  83  0013              ;# 83 "F:\Project\Carilex\E-Signal\i2c\200323-1\200323-1\I2C_SUB..c" 1
  83  0013              	NOP
  83  0013              ;# 83 "F:\Project\Carilex\E-Signal\i2c\200323-1\200323-1\I2C_SUB..c" 1
  83  0013              	NOP
  83  0013              	ENDIF
  83  0013              ;# 83 "F:\Project\Carilex\E-Signal\i2c\200323-1\200323-1\I2C_SUB..c" 1
  83  0013              	IF 5==3
  83  0013              ;# 83 "F:\Project\Carilex\E-Signal\i2c\200323-1\200323-1\I2C_SUB..c" 1
  83  0013              	NOP
  83  0013              ;# 83 "F:\Project\Carilex\E-Signal\i2c\200323-1\200323-1\I2C_SUB..c" 1
  83  0013              	NOP
  83  0013              ;# 83 "F:\Project\Carilex\E-Signal\i2c\200323-1\200323-1\I2C_SUB..c" 1
  83  0013              	NOP
  83  0013              	ENDIF
  83  0013              ;# 83 "F:\Project\Carilex\E-Signal\i2c\200323-1\200323-1\I2C_SUB..c" 1
  83  0013              	IF (5<8) AND (5>3)
  83  0013              ;# 83 "F:\Project\Carilex\E-Signal\i2c\200323-1\200323-1\I2C_SUB..c" 1
  83  0013  2000     E  	CALL __DELAY3 + 7 -5
  83  0014              	ENDIF
  83  0014              ;# 83 "F:\Project\Carilex\E-Signal\i2c\200323-1\200323-1\I2C_SUB..c" 1
  83  0014              	IF (5< 0404h) AND (5>7)
  83  0014              ;# 83 "F:\Project\Carilex\E-Signal\i2c\200323-1\200323-1\I2C_SUB..c" 1
  83  0014              	MOV A,5/4-1
  83  0014              ;# 83 "F:\Project\Carilex\E-Signal\i2c\200323-1\200323-1\I2C_SUB..c" 1
  83  0014              	CALL __DELAYX3 + 3 -(5 MOD 4)
  83  0014              	ENDIF
  83  0014              ;# 83 "F:\Project\Carilex\E-Signal\i2c\200323-1\200323-1\I2C_SUB..c" 1
  83  0014              	IF (5< 0x40B) AND (5> 0403h)
  83  0014              ;# 83 "F:\Project\Carilex\E-Signal\i2c\200323-1\200323-1\I2C_SUB..c" 1
  83  0014              	MOV A,0 
  83  0014              ;# 83 "F:\Project\Carilex\E-Signal\i2c\200323-1\200323-1\I2C_SUB..c" 1
  83  0014              	CALL __DELAYX6 + 0x40a -5
  83  0014              	ENDIF
  83  0014              ;# 83 "F:\Project\Carilex\E-Signal\i2c\200323-1\200323-1\I2C_SUB..c" 1
  83  0014              	IF (5 >= 0x40b) AND ((((5-9)%0402h)/4+1)>256)
  83  0014              ;# 83 "F:\Project\Carilex\E-Signal\i2c\200323-1\200323-1\I2C_SUB..c" 1
  83  0014              	MOV A,(5-9)/0402h
"File: I2C_SUB..c    Assembler  Version HGASM0202      Page 31

  83  0014              ;# 83 "F:\Project\Carilex\E-Signal\i2c\200323-1\200323-1\I2C_SUB..c" 1
  83  0014              	MOV _builtin_holtek_delay_2,A
  83  0014              ;# 83 "F:\Project\Carilex\E-Signal\i2c\200323-1\200323-1\I2C_SUB..c" 1
  83  0014              	MOV A,0
  83  0014              ;# 83 "F:\Project\Carilex\E-Signal\i2c\200323-1\200323-1\I2C_SUB..c" 1
  83  0014              	CALL __DELAYY5 +5- (((5-9)%0402h)%6)
  83  0014              	ENDIF
  83  0014              ;# 83 "F:\Project\Carilex\E-Signal\i2c\200323-1\200323-1\I2C_SUB..c" 1
  83  0014              	IF (5 >= 0x40b) AND ((((5-9)%0402h)/4+1)<=256)
  83  0014              ;# 83 "F:\Project\Carilex\E-Signal\i2c\200323-1\200323-1\I2C_SUB..c" 1
  83  0014              	MOV A,(5-9)/0402h
  83  0014              ;# 83 "F:\Project\Carilex\E-Signal\i2c\200323-1\200323-1\I2C_SUB..c" 1
  83  0014              	MOV _builtin_holtek_delay_2,A
  83  0014              ;# 83 "F:\Project\Carilex\E-Signal\i2c\200323-1\200323-1\I2C_SUB..c" 1
  83  0014              	MOV A,((5-9)%0402h)/4+1
  83  0014              ;# 83 "F:\Project\Carilex\E-Signal\i2c\200323-1\200323-1\I2C_SUB..c" 1
  83  0014              	CALL __DELAYY3 +3-(((5-9)%0402h)%4)
  83  0014              	ENDIF
  84  0014              #line 84 "F:\Project\Carilex\E-Signal\i2c\200323-1\200323-1\I2C_SUB..c"
  84  0014  0700     R  	mov a,_i2cWrite_2[0]
  84  0015  0380     R  	addm a,_i2cWrite_2[0]
  84  0016              _L7:
  84  0016  1780     E  	sdz ra
  84  0017  2800     R  	jmp _L8
  84  0018  0003        	ret
  84  0019              _i2cWrite endp
  84  0019              #line 84 "F:\Project\Carilex\E-Signal\i2c\200323-1\200323-1\I2C_SUB..c"
  84  0019              #pragma debug scope 1 1
  84  0019              public _i2cRead
  84  0019              #pragma debug scope 8 1
  91  0019              #line 91 "F:\Project\Carilex\E-Signal\i2c\200323-1\200323-1\I2C_SUB..c"
  91  0000              _i2cRead .section 'code'
  91  0000              _i2cRead proc
  93  0000              #line 93 "F:\Project\Carilex\E-Signal\i2c\200323-1\200323-1\I2C_SUB..c"
  93  0000  3215        	set [21].4
  94  0001              #line 94 "F:\Project\Carilex\E-Signal\i2c\200323-1\200323-1\I2C_SUB..c"
  94  0001  34A6        	clr [38].1
  95  0002              #line 95 "F:\Project\Carilex\E-Signal\i2c\200323-1\200323-1\I2C_SUB..c"
  95  0002  0F09        	mov a,9
  95  0003  0080     E  	mov rb,a
  92  0004              #line 92 "F:\Project\Carilex\E-Signal\i2c\200323-1\200323-1\I2C_SUB..c"
  92  0004  1F00     E  	clr ra
  92  0005              _L11:
  92  0005  1780     E  	sdz rb
  92  0006  2800     R  	jmp _LI1
  92  0007  2800     R  	jmp _L13
  92  0008              _LI1:
  97  0008              #line 97 "F:\Project\Carilex\E-Signal\i2c\200323-1\200323-1\I2C_SUB..c"
  97  0008  30A5        	set [37].1
  97  0009              ;# 97 "F:\Project\Carilex\E-Signal\i2c\200323-1\200323-1\I2C_SUB..c" 1
  97  0009              	IF 5>263690
  97  0009              ;# 97 "F:\Project\Carilex\E-Signal\i2c\200323-1\200323-1\I2C_SUB..c" 1
  97  0009              	ERRMESSAGE 'the value 5of the argument exceeds the maxinum 263690'
  97  0009              	ENDIF
  97  0009              ;# 97 "F:\Project\Carilex\E-Signal\i2c\200323-1\200323-1\I2C_SUB..c" 1
  97  0009              	IF 5<0
  97  0009              ;# 97 "F:\Project\Carilex\E-Signal\i2c\200323-1\200323-1\I2C_SUB..c" 1
  97  0009              	ERRMESSAGE 'the value 5 of the argument exceeds the mininum 0'
  97  0009              	ENDIF
  97  0009              ;# 97 "F:\Project\Carilex\E-Signal\i2c\200323-1\200323-1\I2C_SUB..c" 1
"File: I2C_SUB..c    Assembler  Version HGASM0202      Page 32

  97  0009              	IF 5==0
  97  0009              ;# 97 "F:\Project\Carilex\E-Signal\i2c\200323-1\200323-1\I2C_SUB..c" 1
  97  0009              	JMP $
  97  0009              	ENDIF
  97  0009              ;# 97 "F:\Project\Carilex\E-Signal\i2c\200323-1\200323-1\I2C_SUB..c" 1
  97  0009              	IF 5==1
  97  0009              ;# 97 "F:\Project\Carilex\E-Signal\i2c\200323-1\200323-1\I2C_SUB..c" 1
  97  0009              	NOP
  97  0009              	ENDIF
  97  0009              ;# 97 "F:\Project\Carilex\E-Signal\i2c\200323-1\200323-1\I2C_SUB..c" 1
  97  0009              	IF 5==2
  97  0009              ;# 97 "F:\Project\Carilex\E-Signal\i2c\200323-1\200323-1\I2C_SUB..c" 1
  97  0009              	NOP
  97  0009              ;# 97 "F:\Project\Carilex\E-Signal\i2c\200323-1\200323-1\I2C_SUB..c" 1
  97  0009              	NOP
  97  0009              	ENDIF
  97  0009              ;# 97 "F:\Project\Carilex\E-Signal\i2c\200323-1\200323-1\I2C_SUB..c" 1
  97  0009              	IF 5==3
  97  0009              ;# 97 "F:\Project\Carilex\E-Signal\i2c\200323-1\200323-1\I2C_SUB..c" 1
  97  0009              	NOP
  97  0009              ;# 97 "F:\Project\Carilex\E-Signal\i2c\200323-1\200323-1\I2C_SUB..c" 1
  97  0009              	NOP
  97  0009              ;# 97 "F:\Project\Carilex\E-Signal\i2c\200323-1\200323-1\I2C_SUB..c" 1
  97  0009              	NOP
  97  0009              	ENDIF
  97  0009              ;# 97 "F:\Project\Carilex\E-Signal\i2c\200323-1\200323-1\I2C_SUB..c" 1
  97  0009              	IF (5<8) AND (5>3)
  97  0009              ;# 97 "F:\Project\Carilex\E-Signal\i2c\200323-1\200323-1\I2C_SUB..c" 1
  97  0009  2000     E  	CALL __DELAY3 + 7 -5
  97  000A              	ENDIF
  97  000A              ;# 97 "F:\Project\Carilex\E-Signal\i2c\200323-1\200323-1\I2C_SUB..c" 1
  97  000A              	IF (5< 0404h) AND (5>7)
  97  000A              ;# 97 "F:\Project\Carilex\E-Signal\i2c\200323-1\200323-1\I2C_SUB..c" 1
  97  000A              	MOV A,5/4-1
  97  000A              ;# 97 "F:\Project\Carilex\E-Signal\i2c\200323-1\200323-1\I2C_SUB..c" 1
  97  000A              	CALL __DELAYX3 + 3 -(5 MOD 4)
  97  000A              	ENDIF
  97  000A              ;# 97 "F:\Project\Carilex\E-Signal\i2c\200323-1\200323-1\I2C_SUB..c" 1
  97  000A              	IF (5< 0x40B) AND (5> 0403h)
  97  000A              ;# 97 "F:\Project\Carilex\E-Signal\i2c\200323-1\200323-1\I2C_SUB..c" 1
  97  000A              	MOV A,0 
  97  000A              ;# 97 "F:\Project\Carilex\E-Signal\i2c\200323-1\200323-1\I2C_SUB..c" 1
  97  000A              	CALL __DELAYX6 + 0x40a -5
  97  000A              	ENDIF
  97  000A              ;# 97 "F:\Project\Carilex\E-Signal\i2c\200323-1\200323-1\I2C_SUB..c" 1
  97  000A              	IF (5 >= 0x40b) AND ((((5-9)%0402h)/4+1)>256)
  97  000A              ;# 97 "F:\Project\Carilex\E-Signal\i2c\200323-1\200323-1\I2C_SUB..c" 1
  97  000A              	MOV A,(5-9)/0402h
  97  000A              ;# 97 "F:\Project\Carilex\E-Signal\i2c\200323-1\200323-1\I2C_SUB..c" 1
  97  000A              	MOV _builtin_holtek_delay_2,A
  97  000A              ;# 97 "F:\Project\Carilex\E-Signal\i2c\200323-1\200323-1\I2C_SUB..c" 1
  97  000A              	MOV A,0
  97  000A              ;# 97 "F:\Project\Carilex\E-Signal\i2c\200323-1\200323-1\I2C_SUB..c" 1
  97  000A              	CALL __DELAYY5 +5- (((5-9)%0402h)%6)
  97  000A              	ENDIF
  97  000A              ;# 97 "F:\Project\Carilex\E-Signal\i2c\200323-1\200323-1\I2C_SUB..c" 1
  97  000A              	IF (5 >= 0x40b) AND ((((5-9)%0402h)/4+1)<=256)
  97  000A              ;# 97 "F:\Project\Carilex\E-Signal\i2c\200323-1\200323-1\I2C_SUB..c" 1
  97  000A              	MOV A,(5-9)/0402h
  97  000A              ;# 97 "F:\Project\Carilex\E-Signal\i2c\200323-1\200323-1\I2C_SUB..c" 1
"File: I2C_SUB..c    Assembler  Version HGASM0202      Page 33

  97  000A              	MOV _builtin_holtek_delay_2,A
  97  000A              ;# 97 "F:\Project\Carilex\E-Signal\i2c\200323-1\200323-1\I2C_SUB..c" 1
  97  000A              	MOV A,((5-9)%0402h)/4+1
  97  000A              ;# 97 "F:\Project\Carilex\E-Signal\i2c\200323-1\200323-1\I2C_SUB..c" 1
  97  000A              	CALL __DELAYY3 +3-(((5-9)%0402h)%4)
  97  000A              	ENDIF
  98  000A              #line 98 "F:\Project\Carilex\E-Signal\i2c\200323-1\200323-1\I2C_SUB..c"
  98  000A  0700     E  	mov a,ra
  98  000B  0380     E  	addm a,ra
  99  000C              #line 99 "F:\Project\Carilex\E-Signal\i2c\200323-1\200323-1\I2C_SUB..c"
  99  000C  1F00     E  	clr rc
  99  000D  3E14        	sz [20].4
  99  000E  1480     E  	inc rc
  99  000F  0700     E  	mov a,rc
  99  0010  0580     E  	orm a,ra
 100  0011              #line 100 "F:\Project\Carilex\E-Signal\i2c\200323-1\200323-1\I2C_SUB..c"
 100  0011  34A5        	clr [37].1
 100  0012              ;# 100 "F:\Project\Carilex\E-Signal\i2c\200323-1\200323-1\I2C_SUB..c" 1
 100  0012              	IF 5>263690
 100  0012              ;# 100 "F:\Project\Carilex\E-Signal\i2c\200323-1\200323-1\I2C_SUB..c" 1
 100  0012              	ERRMESSAGE 'the value 5of the argument exceeds the maxinum 263690'
 100  0012              	ENDIF
 100  0012              ;# 100 "F:\Project\Carilex\E-Signal\i2c\200323-1\200323-1\I2C_SUB..c" 1
 100  0012              	IF 5<0
 100  0012              ;# 100 "F:\Project\Carilex\E-Signal\i2c\200323-1\200323-1\I2C_SUB..c" 1
 100  0012              	ERRMESSAGE 'the value 5 of the argument exceeds the mininum 0'
 100  0012              	ENDIF
 100  0012              ;# 100 "F:\Project\Carilex\E-Signal\i2c\200323-1\200323-1\I2C_SUB..c" 1
 100  0012              	IF 5==0
 100  0012              ;# 100 "F:\Project\Carilex\E-Signal\i2c\200323-1\200323-1\I2C_SUB..c" 1
 100  0012              	JMP $
 100  0012              	ENDIF
 100  0012              ;# 100 "F:\Project\Carilex\E-Signal\i2c\200323-1\200323-1\I2C_SUB..c" 1
 100  0012              	IF 5==1
 100  0012              ;# 100 "F:\Project\Carilex\E-Signal\i2c\200323-1\200323-1\I2C_SUB..c" 1
 100  0012              	NOP
 100  0012              	ENDIF
 100  0012              ;# 100 "F:\Project\Carilex\E-Signal\i2c\200323-1\200323-1\I2C_SUB..c" 1
 100  0012              	IF 5==2
 100  0012              ;# 100 "F:\Project\Carilex\E-Signal\i2c\200323-1\200323-1\I2C_SUB..c" 1
 100  0012              	NOP
 100  0012              ;# 100 "F:\Project\Carilex\E-Signal\i2c\200323-1\200323-1\I2C_SUB..c" 1
 100  0012              	NOP
 100  0012              	ENDIF
 100  0012              ;# 100 "F:\Project\Carilex\E-Signal\i2c\200323-1\200323-1\I2C_SUB..c" 1
 100  0012              	IF 5==3
 100  0012              ;# 100 "F:\Project\Carilex\E-Signal\i2c\200323-1\200323-1\I2C_SUB..c" 1
 100  0012              	NOP
 100  0012              ;# 100 "F:\Project\Carilex\E-Signal\i2c\200323-1\200323-1\I2C_SUB..c" 1
 100  0012              	NOP
 100  0012              ;# 100 "F:\Project\Carilex\E-Signal\i2c\200323-1\200323-1\I2C_SUB..c" 1
 100  0012              	NOP
 100  0012              	ENDIF
 100  0012              ;# 100 "F:\Project\Carilex\E-Signal\i2c\200323-1\200323-1\I2C_SUB..c" 1
 100  0012              	IF (5<8) AND (5>3)
 100  0012              ;# 100 "F:\Project\Carilex\E-Signal\i2c\200323-1\200323-1\I2C_SUB..c" 1
 100  0012  2000     E  	CALL __DELAY3 + 7 -5
 100  0013              	ENDIF
 100  0013              ;# 100 "F:\Project\Carilex\E-Signal\i2c\200323-1\200323-1\I2C_SUB..c" 1
 100  0013              	IF (5< 0404h) AND (5>7)
"File: I2C_SUB..c    Assembler  Version HGASM0202      Page 34

 100  0013              ;# 100 "F:\Project\Carilex\E-Signal\i2c\200323-1\200323-1\I2C_SUB..c" 1
 100  0013              	MOV A,5/4-1
 100  0013              ;# 100 "F:\Project\Carilex\E-Signal\i2c\200323-1\200323-1\I2C_SUB..c" 1
 100  0013              	CALL __DELAYX3 + 3 -(5 MOD 4)
 100  0013              	ENDIF
 100  0013              ;# 100 "F:\Project\Carilex\E-Signal\i2c\200323-1\200323-1\I2C_SUB..c" 1
 100  0013              	IF (5< 0x40B) AND (5> 0403h)
 100  0013              ;# 100 "F:\Project\Carilex\E-Signal\i2c\200323-1\200323-1\I2C_SUB..c" 1
 100  0013              	MOV A,0 
 100  0013              ;# 100 "F:\Project\Carilex\E-Signal\i2c\200323-1\200323-1\I2C_SUB..c" 1
 100  0013              	CALL __DELAYX6 + 0x40a -5
 100  0013              	ENDIF
 100  0013              ;# 100 "F:\Project\Carilex\E-Signal\i2c\200323-1\200323-1\I2C_SUB..c" 1
 100  0013              	IF (5 >= 0x40b) AND ((((5-9)%0402h)/4+1)>256)
 100  0013              ;# 100 "F:\Project\Carilex\E-Signal\i2c\200323-1\200323-1\I2C_SUB..c" 1
 100  0013              	MOV A,(5-9)/0402h
 100  0013              ;# 100 "F:\Project\Carilex\E-Signal\i2c\200323-1\200323-1\I2C_SUB..c" 1
 100  0013              	MOV _builtin_holtek_delay_2,A
 100  0013              ;# 100 "F:\Project\Carilex\E-Signal\i2c\200323-1\200323-1\I2C_SUB..c" 1
 100  0013              	MOV A,0
 100  0013              ;# 100 "F:\Project\Carilex\E-Signal\i2c\200323-1\200323-1\I2C_SUB..c" 1
 100  0013              	CALL __DELAYY5 +5- (((5-9)%0402h)%6)
 100  0013              	ENDIF
 100  0013              ;# 100 "F:\Project\Carilex\E-Signal\i2c\200323-1\200323-1\I2C_SUB..c" 1
 100  0013              	IF (5 >= 0x40b) AND ((((5-9)%0402h)/4+1)<=256)
 100  0013              ;# 100 "F:\Project\Carilex\E-Signal\i2c\200323-1\200323-1\I2C_SUB..c" 1
 100  0013              	MOV A,(5-9)/0402h
 100  0013              ;# 100 "F:\Project\Carilex\E-Signal\i2c\200323-1\200323-1\I2C_SUB..c" 1
 100  0013              	MOV _builtin_holtek_delay_2,A
 100  0013              ;# 100 "F:\Project\Carilex\E-Signal\i2c\200323-1\200323-1\I2C_SUB..c" 1
 100  0013              	MOV A,((5-9)%0402h)/4+1
 100  0013              ;# 100 "F:\Project\Carilex\E-Signal\i2c\200323-1\200323-1\I2C_SUB..c" 1
 100  0013              	CALL __DELAYY3 +3-(((5-9)%0402h)%4)
 100  0013              	ENDIF
 100  0013  2800     R  	jmp _L11
 100  0014              _L13:
 103  0014              #line 103 "F:\Project\Carilex\E-Signal\i2c\200323-1\200323-1\I2C_SUB..c"
 103  0014  0700     E  	mov a,ra
 103  0015  0003        	ret
 103  0016              _i2cRead endp
 103  0016              #line 103 "F:\Project\Carilex\E-Signal\i2c\200323-1\200323-1\I2C_SUB..c"
 103  0016              #pragma debug scope 1 1
 103  0016              public _AckTimeout
 103  0016              #pragma debug scope 9 1
 106  0016              #line 106 "F:\Project\Carilex\E-Signal\i2c\200323-1\200323-1\I2C_SUB..c"
 106  0000              _AckTimeout .section 'code'
 106  0000              _AckTimeout proc
 106  0000  1F80     E  	set ra
 106  0001              _L16:
 111  0001              #line 111 "F:\Project\Carilex\E-Signal\i2c\200323-1\200323-1\I2C_SUB..c"
 111  0001  3215        	set [21].4
 112  0002              #line 112 "F:\Project\Carilex\E-Signal\i2c\200323-1\200323-1\I2C_SUB..c"
 112  0002  34A6        	clr [38].1
 113  0003              #line 113 "F:\Project\Carilex\E-Signal\i2c\200323-1\200323-1\I2C_SUB..c"
 113  0003  30A5        	set [37].1
 113  0004              ;# 113 "F:\Project\Carilex\E-Signal\i2c\200323-1\200323-1\I2C_SUB..c" 1
 113  0004              	IF 5>263690
 113  0004              ;# 113 "F:\Project\Carilex\E-Signal\i2c\200323-1\200323-1\I2C_SUB..c" 1
 113  0004              	ERRMESSAGE 'the value 5of the argument exceeds the maxinum 263690'
 113  0004              	ENDIF
"File: I2C_SUB..c    Assembler  Version HGASM0202      Page 35

 113  0004              ;# 113 "F:\Project\Carilex\E-Signal\i2c\200323-1\200323-1\I2C_SUB..c" 1
 113  0004              	IF 5<0
 113  0004              ;# 113 "F:\Project\Carilex\E-Signal\i2c\200323-1\200323-1\I2C_SUB..c" 1
 113  0004              	ERRMESSAGE 'the value 5 of the argument exceeds the mininum 0'
 113  0004              	ENDIF
 113  0004              ;# 113 "F:\Project\Carilex\E-Signal\i2c\200323-1\200323-1\I2C_SUB..c" 1
 113  0004              	IF 5==0
 113  0004              ;# 113 "F:\Project\Carilex\E-Signal\i2c\200323-1\200323-1\I2C_SUB..c" 1
 113  0004              	JMP $
 113  0004              	ENDIF
 113  0004              ;# 113 "F:\Project\Carilex\E-Signal\i2c\200323-1\200323-1\I2C_SUB..c" 1
 113  0004              	IF 5==1
 113  0004              ;# 113 "F:\Project\Carilex\E-Signal\i2c\200323-1\200323-1\I2C_SUB..c" 1
 113  0004              	NOP
 113  0004              	ENDIF
 113  0004              ;# 113 "F:\Project\Carilex\E-Signal\i2c\200323-1\200323-1\I2C_SUB..c" 1
 113  0004              	IF 5==2
 113  0004              ;# 113 "F:\Project\Carilex\E-Signal\i2c\200323-1\200323-1\I2C_SUB..c" 1
 113  0004              	NOP
 113  0004              ;# 113 "F:\Project\Carilex\E-Signal\i2c\200323-1\200323-1\I2C_SUB..c" 1
 113  0004              	NOP
 113  0004              	ENDIF
 113  0004              ;# 113 "F:\Project\Carilex\E-Signal\i2c\200323-1\200323-1\I2C_SUB..c" 1
 113  0004              	IF 5==3
 113  0004              ;# 113 "F:\Project\Carilex\E-Signal\i2c\200323-1\200323-1\I2C_SUB..c" 1
 113  0004              	NOP
 113  0004              ;# 113 "F:\Project\Carilex\E-Signal\i2c\200323-1\200323-1\I2C_SUB..c" 1
 113  0004              	NOP
 113  0004              ;# 113 "F:\Project\Carilex\E-Signal\i2c\200323-1\200323-1\I2C_SUB..c" 1
 113  0004              	NOP
 113  0004              	ENDIF
 113  0004              ;# 113 "F:\Project\Carilex\E-Signal\i2c\200323-1\200323-1\I2C_SUB..c" 1
 113  0004              	IF (5<8) AND (5>3)
 113  0004              ;# 113 "F:\Project\Carilex\E-Signal\i2c\200323-1\200323-1\I2C_SUB..c" 1
 113  0004  2000     E  	CALL __DELAY3 + 7 -5
 113  0005              	ENDIF
 113  0005              ;# 113 "F:\Project\Carilex\E-Signal\i2c\200323-1\200323-1\I2C_SUB..c" 1
 113  0005              	IF (5< 0404h) AND (5>7)
 113  0005              ;# 113 "F:\Project\Carilex\E-Signal\i2c\200323-1\200323-1\I2C_SUB..c" 1
 113  0005              	MOV A,5/4-1
 113  0005              ;# 113 "F:\Project\Carilex\E-Signal\i2c\200323-1\200323-1\I2C_SUB..c" 1
 113  0005              	CALL __DELAYX3 + 3 -(5 MOD 4)
 113  0005              	ENDIF
 113  0005              ;# 113 "F:\Project\Carilex\E-Signal\i2c\200323-1\200323-1\I2C_SUB..c" 1
 113  0005              	IF (5< 0x40B) AND (5> 0403h)
 113  0005              ;# 113 "F:\Project\Carilex\E-Signal\i2c\200323-1\200323-1\I2C_SUB..c" 1
 113  0005              	MOV A,0 
 113  0005              ;# 113 "F:\Project\Carilex\E-Signal\i2c\200323-1\200323-1\I2C_SUB..c" 1
 113  0005              	CALL __DELAYX6 + 0x40a -5
 113  0005              	ENDIF
 113  0005              ;# 113 "F:\Project\Carilex\E-Signal\i2c\200323-1\200323-1\I2C_SUB..c" 1
 113  0005              	IF (5 >= 0x40b) AND ((((5-9)%0402h)/4+1)>256)
 113  0005              ;# 113 "F:\Project\Carilex\E-Signal\i2c\200323-1\200323-1\I2C_SUB..c" 1
 113  0005              	MOV A,(5-9)/0402h
 113  0005              ;# 113 "F:\Project\Carilex\E-Signal\i2c\200323-1\200323-1\I2C_SUB..c" 1
 113  0005              	MOV _builtin_holtek_delay_2,A
 113  0005              ;# 113 "F:\Project\Carilex\E-Signal\i2c\200323-1\200323-1\I2C_SUB..c" 1
 113  0005              	MOV A,0
 113  0005              ;# 113 "F:\Project\Carilex\E-Signal\i2c\200323-1\200323-1\I2C_SUB..c" 1
 113  0005              	CALL __DELAYY5 +5- (((5-9)%0402h)%6)
"File: I2C_SUB..c    Assembler  Version HGASM0202      Page 36

 113  0005              	ENDIF
 113  0005              ;# 113 "F:\Project\Carilex\E-Signal\i2c\200323-1\200323-1\I2C_SUB..c" 1
 113  0005              	IF (5 >= 0x40b) AND ((((5-9)%0402h)/4+1)<=256)
 113  0005              ;# 113 "F:\Project\Carilex\E-Signal\i2c\200323-1\200323-1\I2C_SUB..c" 1
 113  0005              	MOV A,(5-9)/0402h
 113  0005              ;# 113 "F:\Project\Carilex\E-Signal\i2c\200323-1\200323-1\I2C_SUB..c" 1
 113  0005              	MOV _builtin_holtek_delay_2,A
 113  0005              ;# 113 "F:\Project\Carilex\E-Signal\i2c\200323-1\200323-1\I2C_SUB..c" 1
 113  0005              	MOV A,((5-9)%0402h)/4+1
 113  0005              ;# 113 "F:\Project\Carilex\E-Signal\i2c\200323-1\200323-1\I2C_SUB..c" 1
 113  0005              	CALL __DELAYY3 +3-(((5-9)%0402h)%4)
 113  0005              	ENDIF
 114  0005              #line 114 "F:\Project\Carilex\E-Signal\i2c\200323-1\200323-1\I2C_SUB..c"
 114  0005  1F00     E  	clr rb
 114  0006  3E14        	sz [20].4
 114  0007  1480     E  	inc rb
 114  0008              ;# 114 "F:\Project\Carilex\E-Signal\i2c\200323-1\200323-1\I2C_SUB..c" 1
 114  0008              	IF 5>263690
 114  0008              ;# 114 "F:\Project\Carilex\E-Signal\i2c\200323-1\200323-1\I2C_SUB..c" 1
 114  0008              	ERRMESSAGE 'the value 5of the argument exceeds the maxinum 263690'
 114  0008              	ENDIF
 114  0008              ;# 114 "F:\Project\Carilex\E-Signal\i2c\200323-1\200323-1\I2C_SUB..c" 1
 114  0008              	IF 5<0
 114  0008              ;# 114 "F:\Project\Carilex\E-Signal\i2c\200323-1\200323-1\I2C_SUB..c" 1
 114  0008              	ERRMESSAGE 'the value 5 of the argument exceeds the mininum 0'
 114  0008              	ENDIF
 114  0008              ;# 114 "F:\Project\Carilex\E-Signal\i2c\200323-1\200323-1\I2C_SUB..c" 1
 114  0008              	IF 5==0
 114  0008              ;# 114 "F:\Project\Carilex\E-Signal\i2c\200323-1\200323-1\I2C_SUB..c" 1
 114  0008              	JMP $
 114  0008              	ENDIF
 114  0008              ;# 114 "F:\Project\Carilex\E-Signal\i2c\200323-1\200323-1\I2C_SUB..c" 1
 114  0008              	IF 5==1
 114  0008              ;# 114 "F:\Project\Carilex\E-Signal\i2c\200323-1\200323-1\I2C_SUB..c" 1
 114  0008              	NOP
 114  0008              	ENDIF
 114  0008              ;# 114 "F:\Project\Carilex\E-Signal\i2c\200323-1\200323-1\I2C_SUB..c" 1
 114  0008              	IF 5==2
 114  0008              ;# 114 "F:\Project\Carilex\E-Signal\i2c\200323-1\200323-1\I2C_SUB..c" 1
 114  0008              	NOP
 114  0008              ;# 114 "F:\Project\Carilex\E-Signal\i2c\200323-1\200323-1\I2C_SUB..c" 1
 114  0008              	NOP
 114  0008              	ENDIF
 114  0008              ;# 114 "F:\Project\Carilex\E-Signal\i2c\200323-1\200323-1\I2C_SUB..c" 1
 114  0008              	IF 5==3
 114  0008              ;# 114 "F:\Project\Carilex\E-Signal\i2c\200323-1\200323-1\I2C_SUB..c" 1
 114  0008              	NOP
 114  0008              ;# 114 "F:\Project\Carilex\E-Signal\i2c\200323-1\200323-1\I2C_SUB..c" 1
 114  0008              	NOP
 114  0008              ;# 114 "F:\Project\Carilex\E-Signal\i2c\200323-1\200323-1\I2C_SUB..c" 1
 114  0008              	NOP
 114  0008              	ENDIF
 114  0008              ;# 114 "F:\Project\Carilex\E-Signal\i2c\200323-1\200323-1\I2C_SUB..c" 1
 114  0008              	IF (5<8) AND (5>3)
 114  0008              ;# 114 "F:\Project\Carilex\E-Signal\i2c\200323-1\200323-1\I2C_SUB..c" 1
 114  0008  2000     E  	CALL __DELAY3 + 7 -5
 114  0009              	ENDIF
 114  0009              ;# 114 "F:\Project\Carilex\E-Signal\i2c\200323-1\200323-1\I2C_SUB..c" 1
 114  0009              	IF (5< 0404h) AND (5>7)
 114  0009              ;# 114 "F:\Project\Carilex\E-Signal\i2c\200323-1\200323-1\I2C_SUB..c" 1
"File: I2C_SUB..c    Assembler  Version HGASM0202      Page 37

 114  0009              	MOV A,5/4-1
 114  0009              ;# 114 "F:\Project\Carilex\E-Signal\i2c\200323-1\200323-1\I2C_SUB..c" 1
 114  0009              	CALL __DELAYX3 + 3 -(5 MOD 4)
 114  0009              	ENDIF
 114  0009              ;# 114 "F:\Project\Carilex\E-Signal\i2c\200323-1\200323-1\I2C_SUB..c" 1
 114  0009              	IF (5< 0x40B) AND (5> 0403h)
 114  0009              ;# 114 "F:\Project\Carilex\E-Signal\i2c\200323-1\200323-1\I2C_SUB..c" 1
 114  0009              	MOV A,0 
 114  0009              ;# 114 "F:\Project\Carilex\E-Signal\i2c\200323-1\200323-1\I2C_SUB..c" 1
 114  0009              	CALL __DELAYX6 + 0x40a -5
 114  0009              	ENDIF
 114  0009              ;# 114 "F:\Project\Carilex\E-Signal\i2c\200323-1\200323-1\I2C_SUB..c" 1
 114  0009              	IF (5 >= 0x40b) AND ((((5-9)%0402h)/4+1)>256)
 114  0009              ;# 114 "F:\Project\Carilex\E-Signal\i2c\200323-1\200323-1\I2C_SUB..c" 1
 114  0009              	MOV A,(5-9)/0402h
 114  0009              ;# 114 "F:\Project\Carilex\E-Signal\i2c\200323-1\200323-1\I2C_SUB..c" 1
 114  0009              	MOV _builtin_holtek_delay_2,A
 114  0009              ;# 114 "F:\Project\Carilex\E-Signal\i2c\200323-1\200323-1\I2C_SUB..c" 1
 114  0009              	MOV A,0
 114  0009              ;# 114 "F:\Project\Carilex\E-Signal\i2c\200323-1\200323-1\I2C_SUB..c" 1
 114  0009              	CALL __DELAYY5 +5- (((5-9)%0402h)%6)
 114  0009              	ENDIF
 114  0009              ;# 114 "F:\Project\Carilex\E-Signal\i2c\200323-1\200323-1\I2C_SUB..c" 1
 114  0009              	IF (5 >= 0x40b) AND ((((5-9)%0402h)/4+1)<=256)
 114  0009              ;# 114 "F:\Project\Carilex\E-Signal\i2c\200323-1\200323-1\I2C_SUB..c" 1
 114  0009              	MOV A,(5-9)/0402h
 114  0009              ;# 114 "F:\Project\Carilex\E-Signal\i2c\200323-1\200323-1\I2C_SUB..c" 1
 114  0009              	MOV _builtin_holtek_delay_2,A
 114  0009              ;# 114 "F:\Project\Carilex\E-Signal\i2c\200323-1\200323-1\I2C_SUB..c" 1
 114  0009              	MOV A,((5-9)%0402h)/4+1
 114  0009              ;# 114 "F:\Project\Carilex\E-Signal\i2c\200323-1\200323-1\I2C_SUB..c" 1
 114  0009              	CALL __DELAYY3 +3-(((5-9)%0402h)%4)
 114  0009              	ENDIF
 115  0009              #line 115 "F:\Project\Carilex\E-Signal\i2c\200323-1\200323-1\I2C_SUB..c"
 115  0009  34A5        	clr [37].1
 115  000A              ;# 115 "F:\Project\Carilex\E-Signal\i2c\200323-1\200323-1\I2C_SUB..c" 1
 115  000A              	IF 5>263690
 115  000A              ;# 115 "F:\Project\Carilex\E-Signal\i2c\200323-1\200323-1\I2C_SUB..c" 1
 115  000A              	ERRMESSAGE 'the value 5of the argument exceeds the maxinum 263690'
 115  000A              	ENDIF
 115  000A              ;# 115 "F:\Project\Carilex\E-Signal\i2c\200323-1\200323-1\I2C_SUB..c" 1
 115  000A              	IF 5<0
 115  000A              ;# 115 "F:\Project\Carilex\E-Signal\i2c\200323-1\200323-1\I2C_SUB..c" 1
 115  000A              	ERRMESSAGE 'the value 5 of the argument exceeds the mininum 0'
 115  000A              	ENDIF
 115  000A              ;# 115 "F:\Project\Carilex\E-Signal\i2c\200323-1\200323-1\I2C_SUB..c" 1
 115  000A              	IF 5==0
 115  000A              ;# 115 "F:\Project\Carilex\E-Signal\i2c\200323-1\200323-1\I2C_SUB..c" 1
 115  000A              	JMP $
 115  000A              	ENDIF
 115  000A              ;# 115 "F:\Project\Carilex\E-Signal\i2c\200323-1\200323-1\I2C_SUB..c" 1
 115  000A              	IF 5==1
 115  000A              ;# 115 "F:\Project\Carilex\E-Signal\i2c\200323-1\200323-1\I2C_SUB..c" 1
 115  000A              	NOP
 115  000A              	ENDIF
 115  000A              ;# 115 "F:\Project\Carilex\E-Signal\i2c\200323-1\200323-1\I2C_SUB..c" 1
 115  000A              	IF 5==2
 115  000A              ;# 115 "F:\Project\Carilex\E-Signal\i2c\200323-1\200323-1\I2C_SUB..c" 1
 115  000A              	NOP
 115  000A              ;# 115 "F:\Project\Carilex\E-Signal\i2c\200323-1\200323-1\I2C_SUB..c" 1
"File: I2C_SUB..c    Assembler  Version HGASM0202      Page 38

 115  000A              	NOP
 115  000A              	ENDIF
 115  000A              ;# 115 "F:\Project\Carilex\E-Signal\i2c\200323-1\200323-1\I2C_SUB..c" 1
 115  000A              	IF 5==3
 115  000A              ;# 115 "F:\Project\Carilex\E-Signal\i2c\200323-1\200323-1\I2C_SUB..c" 1
 115  000A              	NOP
 115  000A              ;# 115 "F:\Project\Carilex\E-Signal\i2c\200323-1\200323-1\I2C_SUB..c" 1
 115  000A              	NOP
 115  000A              ;# 115 "F:\Project\Carilex\E-Signal\i2c\200323-1\200323-1\I2C_SUB..c" 1
 115  000A              	NOP
 115  000A              	ENDIF
 115  000A              ;# 115 "F:\Project\Carilex\E-Signal\i2c\200323-1\200323-1\I2C_SUB..c" 1
 115  000A              	IF (5<8) AND (5>3)
 115  000A              ;# 115 "F:\Project\Carilex\E-Signal\i2c\200323-1\200323-1\I2C_SUB..c" 1
 115  000A  2000     E  	CALL __DELAY3 + 7 -5
 115  000B              	ENDIF
 115  000B              ;# 115 "F:\Project\Carilex\E-Signal\i2c\200323-1\200323-1\I2C_SUB..c" 1
 115  000B              	IF (5< 0404h) AND (5>7)
 115  000B              ;# 115 "F:\Project\Carilex\E-Signal\i2c\200323-1\200323-1\I2C_SUB..c" 1
 115  000B              	MOV A,5/4-1
 115  000B              ;# 115 "F:\Project\Carilex\E-Signal\i2c\200323-1\200323-1\I2C_SUB..c" 1
 115  000B              	CALL __DELAYX3 + 3 -(5 MOD 4)
 115  000B              	ENDIF
 115  000B              ;# 115 "F:\Project\Carilex\E-Signal\i2c\200323-1\200323-1\I2C_SUB..c" 1
 115  000B              	IF (5< 0x40B) AND (5> 0403h)
 115  000B              ;# 115 "F:\Project\Carilex\E-Signal\i2c\200323-1\200323-1\I2C_SUB..c" 1
 115  000B              	MOV A,0 
 115  000B              ;# 115 "F:\Project\Carilex\E-Signal\i2c\200323-1\200323-1\I2C_SUB..c" 1
 115  000B              	CALL __DELAYX6 + 0x40a -5
 115  000B              	ENDIF
 115  000B              ;# 115 "F:\Project\Carilex\E-Signal\i2c\200323-1\200323-1\I2C_SUB..c" 1
 115  000B              	IF (5 >= 0x40b) AND ((((5-9)%0402h)/4+1)>256)
 115  000B              ;# 115 "F:\Project\Carilex\E-Signal\i2c\200323-1\200323-1\I2C_SUB..c" 1
 115  000B              	MOV A,(5-9)/0402h
 115  000B              ;# 115 "F:\Project\Carilex\E-Signal\i2c\200323-1\200323-1\I2C_SUB..c" 1
 115  000B              	MOV _builtin_holtek_delay_2,A
 115  000B              ;# 115 "F:\Project\Carilex\E-Signal\i2c\200323-1\200323-1\I2C_SUB..c" 1
 115  000B              	MOV A,0
 115  000B              ;# 115 "F:\Project\Carilex\E-Signal\i2c\200323-1\200323-1\I2C_SUB..c" 1
 115  000B              	CALL __DELAYY5 +5- (((5-9)%0402h)%6)
 115  000B              	ENDIF
 115  000B              ;# 115 "F:\Project\Carilex\E-Signal\i2c\200323-1\200323-1\I2C_SUB..c" 1
 115  000B              	IF (5 >= 0x40b) AND ((((5-9)%0402h)/4+1)<=256)
 115  000B              ;# 115 "F:\Project\Carilex\E-Signal\i2c\200323-1\200323-1\I2C_SUB..c" 1
 115  000B              	MOV A,(5-9)/0402h
 115  000B              ;# 115 "F:\Project\Carilex\E-Signal\i2c\200323-1\200323-1\I2C_SUB..c" 1
 115  000B              	MOV _builtin_holtek_delay_2,A
 115  000B              ;# 115 "F:\Project\Carilex\E-Signal\i2c\200323-1\200323-1\I2C_SUB..c" 1
 115  000B              	MOV A,((5-9)%0402h)/4+1
 115  000B              ;# 115 "F:\Project\Carilex\E-Signal\i2c\200323-1\200323-1\I2C_SUB..c" 1
 115  000B              	CALL __DELAYY3 +3-(((5-9)%0402h)%4)
 115  000B              	ENDIF
 116  000B              #line 116 "F:\Project\Carilex\E-Signal\i2c\200323-1\200323-1\I2C_SUB..c"
 116  000B  3615        	clr [21].4
 116  000C  1780     E  	sdz ra
 116  000D  2800     R  	jmp _LI2
 116  000E  2800     R  	jmp _L17
 116  000F              _LI2:
 110  000F              #line 110 "F:\Project\Carilex\E-Signal\i2c\200323-1\200323-1\I2C_SUB..c"
 110  000F  1080     E  	sz rb
"File: I2C_SUB..c    Assembler  Version HGASM0202      Page 39

 110  0010  2800     R  	jmp _L16
 120  0011              #line 120 "F:\Project\Carilex\E-Signal\i2c\200323-1\200323-1\I2C_SUB..c"
 120  0011  1F00     E  	clr ra
 120  0012  2800     R  	jmp _L15
 120  0013              _L17:
 118  0013              #line 118 "F:\Project\Carilex\E-Signal\i2c\200323-1\200323-1\I2C_SUB..c"
 118  0013  0F01        	mov a,1
 118  0014  0080     E  	mov ra,a
 118  0015              _L15:
 122  0015              #line 122 "F:\Project\Carilex\E-Signal\i2c\200323-1\200323-1\I2C_SUB..c"
 122  0015  0700     E  	mov a,ra
 122  0016  0003        	ret
 122  0017              _AckTimeout endp
 122  0017              #line 122 "F:\Project\Carilex\E-Signal\i2c\200323-1\200323-1\I2C_SUB..c"
 122  0017              #pragma debug scope 1 1
 122  0017              public _ByteWriteTOF
 122  0017              #pragma debug scope 10 1
 125  0017              #line 125 "F:\Project\Carilex\E-Signal\i2c\200323-1\200323-1\I2C_SUB..c"
 125  0000              _ByteWriteTOF .section 'code'
 125  0000              _ByteWriteTOF proc
 125  0000              public _ByteWriteTOF_2
 125  0000  0004[           local _ByteWriteTOF_2 db 4 dup(?)	; 3,1
            00
            ]
 125  0004              #pragma debug variable 12 10 _ByteWriteTOF_2+0 "addr"
 125  0004              #pragma debug variable 8 10 _ByteWriteTOF_2+2 "buf"
 127  0004              #line 127 "F:\Project\Carilex\E-Signal\i2c\200323-1\200323-1\I2C_SUB..c"
 127  0000  2000     R  	call _i2cStart
 128  0001              #line 128 "F:\Project\Carilex\E-Signal\i2c\200323-1\200323-1\I2C_SUB..c"
 128  0001  0F52        	mov a,82
 128  0002  2000     R  	call _i2cWrite
 129  0003              #line 129 "F:\Project\Carilex\E-Signal\i2c\200323-1\200323-1\I2C_SUB..c"
 129  0003  2000     R  	call _AckTimeout
 129  0004  0080     E  	mov ra,a
 129  0005  1080     E  	sz ra
 129  0006  2800     R  	jmp _LI3
 129  0007  2800     R  	jmp _L20
 129  0008              _LI3:
 129  0008              _L22:
 130  0008              #line 130 "F:\Project\Carilex\E-Signal\i2c\200323-1\200323-1\I2C_SUB..c"
 130  0008  0F01        	mov a,1
 130  0009  0080     R  	mov _ByteWriteTOF_2[3],a
 130  000A  2800     R  	jmp _L21
 130  000B              _L20:
 132  000B              #line 132 "F:\Project\Carilex\E-Signal\i2c\200323-1\200323-1\I2C_SUB..c"
 132  000B  0700     R  	mov a,_ByteWriteTOF_2[0]
 132  000C  0080     E  	mov rb,a
 132  000D  0700     R  	mov a,_ByteWriteTOF_2[1]
 132  000E  0080     E  	mov rc,a
 132  000F  0700     E  	mov a,rc
 132  0010  0080     E  	mov rb,a
 132  0011  1F00     E  	clr rc
 133  0012              #line 133 "F:\Project\Carilex\E-Signal\i2c\200323-1\200323-1\I2C_SUB..c"
 133  0012  0700     E  	mov a,rb
 133  0013  2000     R  	call _i2cWrite
 135  0014              #line 135 "F:\Project\Carilex\E-Signal\i2c\200323-1\200323-1\I2C_SUB..c"
 135  0014  2000     R  	call _AckTimeout
 135  0015  0080     E  	mov ra,a
 135  0016  1080     E  	sz ra
 135  0017  2800     R  	jmp _L22
"File: I2C_SUB..c    Assembler  Version HGASM0202      Page 40

 139  0018              #line 139 "F:\Project\Carilex\E-Signal\i2c\200323-1\200323-1\I2C_SUB..c"
 139  0018  0700     R  	mov a,_ByteWriteTOF_2[0]
 139  0019  2000     R  	call _i2cWrite
 140  001A              #line 140 "F:\Project\Carilex\E-Signal\i2c\200323-1\200323-1\I2C_SUB..c"
 140  001A  2000     R  	call _AckTimeout
 140  001B  0080     E  	mov ra,a
 140  001C  1080     E  	sz ra
 140  001D  2800     R  	jmp _L22
 140  001E              #pragma debug scope 11 10
 140  001E              ;begin block, line: 140.-1
 140  001E              #pragma debug scope 12 11
 140  001E              ;begin block, line: 140.-1
 144  001E              #line 144 "F:\Project\Carilex\E-Signal\i2c\200323-1\200323-1\I2C_SUB..c"
 144  001E  0700     R  	mov a,_ByteWriteTOF_2[2]
 144  001F  0080     E  	mov ra,a
 144  0020  0700     E  	mov a,ra
 144  0021  2000     R  	call _i2cWrite
 145  0022              #line 145 "F:\Project\Carilex\E-Signal\i2c\200323-1\200323-1\I2C_SUB..c"
 145  0022  2000     R  	call _AckTimeout
 145  0023  0080     R  	mov _ByteWriteTOF_2[3],a
 145  0024  1080     R  	sz _ByteWriteTOF_2[3]
 145  0025  2800     R  	jmp _L21
 148  0026              #line 148 "F:\Project\Carilex\E-Signal\i2c\200323-1\200323-1\I2C_SUB..c"
 148  0026  2000     R  	call _i2cStop
 148  0027              _L21:
 148  0027              #pragma debug scope 11 10
 148  0027              #pragma debug scope 10 1
 151  0027              #line 151 "F:\Project\Carilex\E-Signal\i2c\200323-1\200323-1\I2C_SUB..c"
 151  0027  0700     R  	mov a,_ByteWriteTOF_2[3]
 151  0028  0003        	ret
 151  0029              _ByteWriteTOF endp
 151  0029              #line 151 "F:\Project\Carilex\E-Signal\i2c\200323-1\200323-1\I2C_SUB..c"
 151  0029              #pragma debug scope 1 1
 151  0029              public _WriteTOF
 151  0029              #pragma debug scope 13 1
 154  0029              #line 154 "F:\Project\Carilex\E-Signal\i2c\200323-1\200323-1\I2C_SUB..c"
 154  0000              _WriteTOF .section 'code'
 154  0000              _WriteTOF proc
 154  0000              public _WriteTOF_2
 154  0000  0007[           local _WriteTOF_2 db 7 dup(?)	; 5,2
            00
            ]
 154  0007              #pragma debug variable 12 13 _WriteTOF_2+0 "addr"
 154  0007              #pragma debug pointer 42 8 13
 154  0007              #pragma debug pointer 42 8 13
 154  0007              #pragma debug variable 42 13 _WriteTOF_2+2 "buf"
 154  0007              #pragma debug variable 8 13 _WriteTOF_2+4 "len"
 154  0007              #pragma debug variable 8 13 _WriteTOF_2+5 "cnt"
 156  0007              #line 156 "F:\Project\Carilex\E-Signal\i2c\200323-1\200323-1\I2C_SUB..c"
 156  0000  2000     R  	call _i2cStart
 157  0001              #line 157 "F:\Project\Carilex\E-Signal\i2c\200323-1\200323-1\I2C_SUB..c"
 157  0001  0F52        	mov a,82
 157  0002  2000     R  	call _i2cWrite
 158  0003              #line 158 "F:\Project\Carilex\E-Signal\i2c\200323-1\200323-1\I2C_SUB..c"
 158  0003  2000     R  	call _AckTimeout
 158  0004  0080     E  	mov ra,a
 158  0005  1080     E  	sz ra
 158  0006  2800     R  	jmp _LI4
 158  0007  2800     R  	jmp _L25
 158  0008              _LI4:
"File: I2C_SUB..c    Assembler  Version HGASM0202      Page 41

 158  0008              _L27:
 159  0008              #line 159 "F:\Project\Carilex\E-Signal\i2c\200323-1\200323-1\I2C_SUB..c"
 159  0008  0F01        	mov a,1
 159  0009  0080     R  	mov _WriteTOF_2[6],a
 159  000A  2800     R  	jmp _L26
 159  000B              _L25:
 161  000B              #line 161 "F:\Project\Carilex\E-Signal\i2c\200323-1\200323-1\I2C_SUB..c"
 161  000B  0700     R  	mov a,_WriteTOF_2[0]
 161  000C  0080     E  	mov rb,a
 161  000D  0700     R  	mov a,_WriteTOF_2[1]
 161  000E  0080     E  	mov rc,a
 161  000F  0700     E  	mov a,rc
 161  0010  0080     E  	mov rb,a
 161  0011  1F00     E  	clr rc
 162  0012              #line 162 "F:\Project\Carilex\E-Signal\i2c\200323-1\200323-1\I2C_SUB..c"
 162  0012  0700     E  	mov a,rb
 162  0013  2000     R  	call _i2cWrite
 164  0014              #line 164 "F:\Project\Carilex\E-Signal\i2c\200323-1\200323-1\I2C_SUB..c"
 164  0014  2000     R  	call _AckTimeout
 164  0015  0080     E  	mov ra,a
 164  0016  1080     E  	sz ra
 164  0017  2800     R  	jmp _L27
 168  0018              #line 168 "F:\Project\Carilex\E-Signal\i2c\200323-1\200323-1\I2C_SUB..c"
 168  0018  0700     R  	mov a,_WriteTOF_2[0]
 168  0019  2000     R  	call _i2cWrite
 169  001A              #line 169 "F:\Project\Carilex\E-Signal\i2c\200323-1\200323-1\I2C_SUB..c"
 169  001A  2000     R  	call _AckTimeout
 169  001B  0080     R  	mov _WriteTOF_2[6],a
 169  001C  1080     R  	sz _WriteTOF_2[6]
 169  001D  2800     R  	jmp _L27
 169  001E  1F00     R  	clr _WriteTOF_2[5]
 169  001F              _L28:
 172  001F              #line 172 "F:\Project\Carilex\E-Signal\i2c\200323-1\200323-1\I2C_SUB..c"
 172  001F  0700     R  	mov a,_WriteTOF_2[5]
 172  0020  0200     R  	sub a,_WriteTOF_2[4]
 172  0021  3C0A        	sz c
 172  0022  2800     R  	jmp _L30
 175  0023              #line 175 "F:\Project\Carilex\E-Signal\i2c\200323-1\200323-1\I2C_SUB..c"
 175  0023  0700     R  	mov a,_WriteTOF_2[5]
 175  0024  0300     R  	add a,_WriteTOF_2[2]
 175  0025  0083        	mov mp,a
 175  0026  1F05        	clr acc
 175  0027  1300     R  	adc a,_WriteTOF_2[3]
 175  0028  0087        	mov sbp,a
 175  0029  2000     E  	call _Crom2Prom
 175  002A  2000     R  	call _i2cWrite
 176  002B              #line 176 "F:\Project\Carilex\E-Signal\i2c\200323-1\200323-1\I2C_SUB..c"
 176  002B  2000     R  	call _AckTimeout
 176  002C  0080     E  	mov ra,a
 176  002D  1080     E  	sz ra
 176  002E  2800     R  	jmp _L27
 172  002F              #line 172 "F:\Project\Carilex\E-Signal\i2c\200323-1\200323-1\I2C_SUB..c"
 172  002F  1480     R  	inc _WriteTOF_2[5]
 172  0030  2800     R  	jmp _L28
 172  0031              _L30:
 179  0031              #line 179 "F:\Project\Carilex\E-Signal\i2c\200323-1\200323-1\I2C_SUB..c"
 179  0031  2000     R  	call _i2cStop
 179  0032              _L26:
 182  0032              #line 182 "F:\Project\Carilex\E-Signal\i2c\200323-1\200323-1\I2C_SUB..c"
 182  0032  0700     R  	mov a,_WriteTOF_2[6]
"File: I2C_SUB..c    Assembler  Version HGASM0202      Page 42

 182  0033  0003        	ret
 182  0034              _WriteTOF endp
 182  0034              #line 182 "F:\Project\Carilex\E-Signal\i2c\200323-1\200323-1\I2C_SUB..c"
 182  0034              #pragma debug scope 1 1
 182  0034              public _ReadTOF
 182  0034              #pragma debug scope 14 1
 184  0034              #line 184 "F:\Project\Carilex\E-Signal\i2c\200323-1\200323-1\I2C_SUB..c"
 184  0000              _ReadTOF .section 'code'
 184  0000              _ReadTOF proc
 184  0000              public _ReadTOF_2
 184  0000  0007[           local _ReadTOF_2 db 7 dup(?)	; 5,2
            00
            ]
 184  0007              #pragma debug variable 12 14 _ReadTOF_2+0 "addr"
 184  0007              #pragma debug pointer 43 8 14
 184  0007              #pragma debug pointer 43 8 14
 184  0007              #pragma debug variable 43 14 _ReadTOF_2+2 "buf"
 184  0007              #pragma debug variable 8 14 _ReadTOF_2+4 "len"
 184  0007              #pragma debug variable 8 14 _ReadTOF_2+5 "cnt"
 187  0007              #line 187 "F:\Project\Carilex\E-Signal\i2c\200323-1\200323-1\I2C_SUB..c"
 187  0007              ;# 187 "F:\Project\Carilex\E-Signal\i2c\200323-1\200323-1\I2C_SUB..c" 1
 187  0000              	IF 5>263690
 187  0000              ;# 187 "F:\Project\Carilex\E-Signal\i2c\200323-1\200323-1\I2C_SUB..c" 1
 187  0000              	ERRMESSAGE 'the value 5of the argument exceeds the maxinum 263690'
 187  0000              	ENDIF
 187  0000              ;# 187 "F:\Project\Carilex\E-Signal\i2c\200323-1\200323-1\I2C_SUB..c" 1
 187  0000              	IF 5<0
 187  0000              ;# 187 "F:\Project\Carilex\E-Signal\i2c\200323-1\200323-1\I2C_SUB..c" 1
 187  0000              	ERRMESSAGE 'the value 5 of the argument exceeds the mininum 0'
 187  0000              	ENDIF
 187  0000              ;# 187 "F:\Project\Carilex\E-Signal\i2c\200323-1\200323-1\I2C_SUB..c" 1
 187  0000              	IF 5==0
 187  0000              ;# 187 "F:\Project\Carilex\E-Signal\i2c\200323-1\200323-1\I2C_SUB..c" 1
 187  0000              	JMP $
 187  0000              	ENDIF
 187  0000              ;# 187 "F:\Project\Carilex\E-Signal\i2c\200323-1\200323-1\I2C_SUB..c" 1
 187  0000              	IF 5==1
 187  0000              ;# 187 "F:\Project\Carilex\E-Signal\i2c\200323-1\200323-1\I2C_SUB..c" 1
 187  0000              	NOP
 187  0000              	ENDIF
 187  0000              ;# 187 "F:\Project\Carilex\E-Signal\i2c\200323-1\200323-1\I2C_SUB..c" 1
 187  0000              	IF 5==2
 187  0000              ;# 187 "F:\Project\Carilex\E-Signal\i2c\200323-1\200323-1\I2C_SUB..c" 1
 187  0000              	NOP
 187  0000              ;# 187 "F:\Project\Carilex\E-Signal\i2c\200323-1\200323-1\I2C_SUB..c" 1
 187  0000              	NOP
 187  0000              	ENDIF
 187  0000              ;# 187 "F:\Project\Carilex\E-Signal\i2c\200323-1\200323-1\I2C_SUB..c" 1
 187  0000              	IF 5==3
 187  0000              ;# 187 "F:\Project\Carilex\E-Signal\i2c\200323-1\200323-1\I2C_SUB..c" 1
 187  0000              	NOP
 187  0000              ;# 187 "F:\Project\Carilex\E-Signal\i2c\200323-1\200323-1\I2C_SUB..c" 1
 187  0000              	NOP
 187  0000              ;# 187 "F:\Project\Carilex\E-Signal\i2c\200323-1\200323-1\I2C_SUB..c" 1
 187  0000              	NOP
 187  0000              	ENDIF
 187  0000              ;# 187 "F:\Project\Carilex\E-Signal\i2c\200323-1\200323-1\I2C_SUB..c" 1
 187  0000              	IF (5<8) AND (5>3)
 187  0000              ;# 187 "F:\Project\Carilex\E-Signal\i2c\200323-1\200323-1\I2C_SUB..c" 1
 187  0000  2000     E  	CALL __DELAY3 + 7 -5
"File: I2C_SUB..c    Assembler  Version HGASM0202      Page 43

 187  0001              	ENDIF
 187  0001              ;# 187 "F:\Project\Carilex\E-Signal\i2c\200323-1\200323-1\I2C_SUB..c" 1
 187  0001              	IF (5< 0404h) AND (5>7)
 187  0001              ;# 187 "F:\Project\Carilex\E-Signal\i2c\200323-1\200323-1\I2C_SUB..c" 1
 187  0001              	MOV A,5/4-1
 187  0001              ;# 187 "F:\Project\Carilex\E-Signal\i2c\200323-1\200323-1\I2C_SUB..c" 1
 187  0001              	CALL __DELAYX3 + 3 -(5 MOD 4)
 187  0001              	ENDIF
 187  0001              ;# 187 "F:\Project\Carilex\E-Signal\i2c\200323-1\200323-1\I2C_SUB..c" 1
 187  0001              	IF (5< 0x40B) AND (5> 0403h)
 187  0001              ;# 187 "F:\Project\Carilex\E-Signal\i2c\200323-1\200323-1\I2C_SUB..c" 1
 187  0001              	MOV A,0 
 187  0001              ;# 187 "F:\Project\Carilex\E-Signal\i2c\200323-1\200323-1\I2C_SUB..c" 1
 187  0001              	CALL __DELAYX6 + 0x40a -5
 187  0001              	ENDIF
 187  0001              ;# 187 "F:\Project\Carilex\E-Signal\i2c\200323-1\200323-1\I2C_SUB..c" 1
 187  0001              	IF (5 >= 0x40b) AND ((((5-9)%0402h)/4+1)>256)
 187  0001              ;# 187 "F:\Project\Carilex\E-Signal\i2c\200323-1\200323-1\I2C_SUB..c" 1
 187  0001              	MOV A,(5-9)/0402h
 187  0001              ;# 187 "F:\Project\Carilex\E-Signal\i2c\200323-1\200323-1\I2C_SUB..c" 1
 187  0001              	MOV _builtin_holtek_delay_2,A
 187  0001              ;# 187 "F:\Project\Carilex\E-Signal\i2c\200323-1\200323-1\I2C_SUB..c" 1
 187  0001              	MOV A,0
 187  0001              ;# 187 "F:\Project\Carilex\E-Signal\i2c\200323-1\200323-1\I2C_SUB..c" 1
 187  0001              	CALL __DELAYY5 +5- (((5-9)%0402h)%6)
 187  0001              	ENDIF
 187  0001              ;# 187 "F:\Project\Carilex\E-Signal\i2c\200323-1\200323-1\I2C_SUB..c" 1
 187  0001              	IF (5 >= 0x40b) AND ((((5-9)%0402h)/4+1)<=256)
 187  0001              ;# 187 "F:\Project\Carilex\E-Signal\i2c\200323-1\200323-1\I2C_SUB..c" 1
 187  0001              	MOV A,(5-9)/0402h
 187  0001              ;# 187 "F:\Project\Carilex\E-Signal\i2c\200323-1\200323-1\I2C_SUB..c" 1
 187  0001              	MOV _builtin_holtek_delay_2,A
 187  0001              ;# 187 "F:\Project\Carilex\E-Signal\i2c\200323-1\200323-1\I2C_SUB..c" 1
 187  0001              	MOV A,((5-9)%0402h)/4+1
 187  0001              ;# 187 "F:\Project\Carilex\E-Signal\i2c\200323-1\200323-1\I2C_SUB..c" 1
 187  0001              	CALL __DELAYY3 +3-(((5-9)%0402h)%4)
 187  0001              	ENDIF
 189  0001              #line 189 "F:\Project\Carilex\E-Signal\i2c\200323-1\200323-1\I2C_SUB..c"
 189  0001  2000     R  	call _i2cStart
 190  0002              #line 190 "F:\Project\Carilex\E-Signal\i2c\200323-1\200323-1\I2C_SUB..c"
 190  0002  0F52        	mov a,82
 190  0003  2000     R  	call _i2cWrite
 192  0004              #line 192 "F:\Project\Carilex\E-Signal\i2c\200323-1\200323-1\I2C_SUB..c"
 192  0004  2000     R  	call _AckTimeout
 192  0005  0080     E  	mov ra,a
 192  0006  1080     E  	sz ra
 192  0007  2800     R  	jmp _LI5
 192  0008  2800     R  	jmp _L32
 192  0009              _LI5:
 192  0009              _L34:
 193  0009              #line 193 "F:\Project\Carilex\E-Signal\i2c\200323-1\200323-1\I2C_SUB..c"
 193  0009  0F01        	mov a,1
 193  000A  0080     R  	mov _ReadTOF_2[6],a
 193  000B  2800     R  	jmp _L33
 193  000C              _L32:
 194  000C              #line 194 "F:\Project\Carilex\E-Signal\i2c\200323-1\200323-1\I2C_SUB..c"
 194  000C  0700     R  	mov a,_ReadTOF_2[0]
 194  000D  0080     E  	mov rb,a
 194  000E  0700     R  	mov a,_ReadTOF_2[1]
 194  000F  0080     E  	mov rc,a
"File: I2C_SUB..c    Assembler  Version HGASM0202      Page 44

 194  0010  0700     E  	mov a,rc
 194  0011  0080     E  	mov rb,a
 194  0012  1F00     E  	clr rc
 195  0013              #line 195 "F:\Project\Carilex\E-Signal\i2c\200323-1\200323-1\I2C_SUB..c"
 195  0013  0700     E  	mov a,rb
 195  0014  2000     R  	call _i2cWrite
 196  0015              #line 196 "F:\Project\Carilex\E-Signal\i2c\200323-1\200323-1\I2C_SUB..c"
 196  0015  2000     R  	call _AckTimeout
 196  0016  0080     E  	mov ra,a
 196  0017  1080     E  	sz ra
 196  0018  2800     R  	jmp _L34
 200  0019              #line 200 "F:\Project\Carilex\E-Signal\i2c\200323-1\200323-1\I2C_SUB..c"
 200  0019  0700     R  	mov a,_ReadTOF_2[0]
 200  001A  2000     R  	call _i2cWrite
 201  001B              #line 201 "F:\Project\Carilex\E-Signal\i2c\200323-1\200323-1\I2C_SUB..c"
 201  001B  2000     R  	call _AckTimeout
 201  001C  0080     E  	mov ra,a
 201  001D  1080     E  	sz ra
 201  001E  2800     R  	jmp _L34
 204  001F              #line 204 "F:\Project\Carilex\E-Signal\i2c\200323-1\200323-1\I2C_SUB..c"
 204  001F  2000     R  	call _i2cStart
 205  0020              #line 205 "F:\Project\Carilex\E-Signal\i2c\200323-1\200323-1\I2C_SUB..c"
 205  0020  0F53        	mov a,83
 205  0021  2000     R  	call _i2cWrite
 206  0022              #line 206 "F:\Project\Carilex\E-Signal\i2c\200323-1\200323-1\I2C_SUB..c"
 206  0022  2000     R  	call _AckTimeout
 206  0023  0080     R  	mov _ReadTOF_2[6],a
 206  0024  1080     R  	sz _ReadTOF_2[6]
 206  0025  2800     R  	jmp _L34
 206  0026  1F00     R  	clr _ReadTOF_2[5]
 206  0027              _L35:
 209  0027              #line 209 "F:\Project\Carilex\E-Signal\i2c\200323-1\200323-1\I2C_SUB..c"
 209  0027  0700     R  	mov a,_ReadTOF_2[5]
 209  0028  0200     R  	sub a,_ReadTOF_2[4]
 209  0029  3C0A        	sz c
 209  002A  2800     R  	jmp _L38
 211  002B              #line 211 "F:\Project\Carilex\E-Signal\i2c\200323-1\200323-1\I2C_SUB..c"
 211  002B  2000     R  	call _i2cRead
 211  002C  0080     E  	mov ra,a
 212  002D              #line 212 "F:\Project\Carilex\E-Signal\i2c\200323-1\200323-1\I2C_SUB..c"
 212  002D  0700     R  	mov a,_ReadTOF_2[5]
 212  002E  0080     E  	mov rb,a
 212  002F  1F00     E  	clr rc
 212  0030  0700     E  	mov a,rb
 212  0031  0300     R  	add a,_ReadTOF_2[2]
 212  0032  0083        	mov mp,a
 212  0033  0700     E  	mov a,rc
 212  0034  1300     R  	adc a,_ReadTOF_2[3]
 212  0035  0087        	mov sbp,a
 212  0036  0707        	mov a,sbp
 212  0037  0084        	mov bp,a
 212  0038  0700     E  	mov a,ra
 212  0039  0082        	mov ir,a
 213  003A              #line 213 "F:\Project\Carilex\E-Signal\i2c\200323-1\200323-1\I2C_SUB..c"
 213  003A  1480     E  	inc rb
 213  003B  3D0A        	sz z
 213  003C  1480     E  	inc rc
 213  003D  0700     R  	mov a,_ReadTOF_2[4]
 213  003E  0080     E  	mov rd,a
 213  003F  1F00     E  	clr re
"File: I2C_SUB..c    Assembler  Version HGASM0202      Page 45

 213  0040  0700     E  	mov a,rb
 213  0041  0400     E  	xor a,rd
 213  0042  0700     E  	mov a,rc
 213  0043  3D0A        	sz z
 213  0044  0400     E  	xor a,re
 213  0045  3D0A        	sz z
 213  0046  2800     R  	jmp _L36
 214  0047              #line 214 "F:\Project\Carilex\E-Signal\i2c\200323-1\200323-1\I2C_SUB..c"
 214  0047  2000     R  	call _Ack
 214  0048              _L36:
 209  0048              #line 209 "F:\Project\Carilex\E-Signal\i2c\200323-1\200323-1\I2C_SUB..c"
 209  0048  1480     R  	inc _ReadTOF_2[5]
 209  0049  2800     R  	jmp _L35
 209  004A              _L38:
 216  004A              #line 216 "F:\Project\Carilex\E-Signal\i2c\200323-1\200323-1\I2C_SUB..c"
 216  004A  2000     R  	call _NoAck
 217  004B              #line 217 "F:\Project\Carilex\E-Signal\i2c\200323-1\200323-1\I2C_SUB..c"
 217  004B  2000     R  	call _i2cStop
 217  004C              _L33:
 220  004C              #line 220 "F:\Project\Carilex\E-Signal\i2c\200323-1\200323-1\I2C_SUB..c"
 220  004C  0700     R  	mov a,_ReadTOF_2[6]
 220  004D  0003        	ret
 220  004E              _ReadTOF endp
 220  004E              #line 220 "F:\Project\Carilex\E-Signal\i2c\200323-1\200323-1\I2C_SUB..c"
 220  004E              #pragma debug scope 1 1
 220  004E              ___papu equ [22]
 220  004E              ___pbpu equ [39]
 220  004E              public _TestGPIO
 220  004E              #pragma debug scope 15 1
 223  004E              #line 223 "F:\Project\Carilex\E-Signal\i2c\200323-1\200323-1\I2C_SUB..c"
 223  0000              _TestGPIO .section 'code'
 223  0000              _TestGPIO proc
 224  0000              #line 224 "F:\Project\Carilex\E-Signal\i2c\200323-1\200323-1\I2C_SUB..c"
 224  0000  3216        	set [22].4
 225  0001              #line 225 "F:\Project\Carilex\E-Signal\i2c\200323-1\200323-1\I2C_SUB..c"
 225  0001  30A7        	set [39].1
 226  0002              #line 226 "F:\Project\Carilex\E-Signal\i2c\200323-1\200323-1\I2C_SUB..c"
 226  0002  3615        	clr [21].4
 227  0003              #line 227 "F:\Project\Carilex\E-Signal\i2c\200323-1\200323-1\I2C_SUB..c"
 227  0003  34A6        	clr [38].1
 229  0004              #line 229 "F:\Project\Carilex\E-Signal\i2c\200323-1\200323-1\I2C_SUB..c"
 229  0004  3614        	clr [20].4
 230  0005              #line 230 "F:\Project\Carilex\E-Signal\i2c\200323-1\200323-1\I2C_SUB..c"
 230  0005  34A5        	clr [37].1
 230  0006              ;# 230 "F:\Project\Carilex\E-Signal\i2c\200323-1\200323-1\I2C_SUB..c" 1
 230  0006              	IF 200000>263690
 230  0006              ;# 230 "F:\Project\Carilex\E-Signal\i2c\200323-1\200323-1\I2C_SUB..c" 1
 230  0006              	ERRMESSAGE 'the value 200000of the argument exceeds the maxinum 263690'
 230  0006              	ENDIF
 230  0006              ;# 230 "F:\Project\Carilex\E-Signal\i2c\200323-1\200323-1\I2C_SUB..c" 1
 230  0006              	IF 200000<0
 230  0006              ;# 230 "F:\Project\Carilex\E-Signal\i2c\200323-1\200323-1\I2C_SUB..c" 1
 230  0006              	ERRMESSAGE 'the value 200000 of the argument exceeds the mininum 0'
 230  0006              	ENDIF
 230  0006              ;# 230 "F:\Project\Carilex\E-Signal\i2c\200323-1\200323-1\I2C_SUB..c" 1
 230  0006              	IF 200000==0
 230  0006              ;# 230 "F:\Project\Carilex\E-Signal\i2c\200323-1\200323-1\I2C_SUB..c" 1
 230  0006              	JMP $
 230  0006              	ENDIF
 230  0006              ;# 230 "F:\Project\Carilex\E-Signal\i2c\200323-1\200323-1\I2C_SUB..c" 1
"File: I2C_SUB..c    Assembler  Version HGASM0202      Page 46

 230  0006              	IF 200000==1
 230  0006              ;# 230 "F:\Project\Carilex\E-Signal\i2c\200323-1\200323-1\I2C_SUB..c" 1
 230  0006              	NOP
 230  0006              	ENDIF
 230  0006              ;# 230 "F:\Project\Carilex\E-Signal\i2c\200323-1\200323-1\I2C_SUB..c" 1
 230  0006              	IF 200000==2
 230  0006              ;# 230 "F:\Project\Carilex\E-Signal\i2c\200323-1\200323-1\I2C_SUB..c" 1
 230  0006              	NOP
 230  0006              ;# 230 "F:\Project\Carilex\E-Signal\i2c\200323-1\200323-1\I2C_SUB..c" 1
 230  0006              	NOP
 230  0006              	ENDIF
 230  0006              ;# 230 "F:\Project\Carilex\E-Signal\i2c\200323-1\200323-1\I2C_SUB..c" 1
 230  0006              	IF 200000==3
 230  0006              ;# 230 "F:\Project\Carilex\E-Signal\i2c\200323-1\200323-1\I2C_SUB..c" 1
 230  0006              	NOP
 230  0006              ;# 230 "F:\Project\Carilex\E-Signal\i2c\200323-1\200323-1\I2C_SUB..c" 1
 230  0006              	NOP
 230  0006              ;# 230 "F:\Project\Carilex\E-Signal\i2c\200323-1\200323-1\I2C_SUB..c" 1
 230  0006              	NOP
 230  0006              	ENDIF
 230  0006              ;# 230 "F:\Project\Carilex\E-Signal\i2c\200323-1\200323-1\I2C_SUB..c" 1
 230  0006              	IF (200000<8) AND (200000>3)
 230  0006              ;# 230 "F:\Project\Carilex\E-Signal\i2c\200323-1\200323-1\I2C_SUB..c" 1
 230  0006              	CALL __DELAY3 + 7 -200000
 230  0006              	ENDIF
 230  0006              ;# 230 "F:\Project\Carilex\E-Signal\i2c\200323-1\200323-1\I2C_SUB..c" 1
 230  0006              	IF (200000< 0404h) AND (200000>7)
 230  0006              ;# 230 "F:\Project\Carilex\E-Signal\i2c\200323-1\200323-1\I2C_SUB..c" 1
 230  0006              	MOV A,200000/4-1
 230  0006              ;# 230 "F:\Project\Carilex\E-Signal\i2c\200323-1\200323-1\I2C_SUB..c" 1
 230  0006              	CALL __DELAYX3 + 3 -(200000 MOD 4)
 230  0006              	ENDIF
 230  0006              ;# 230 "F:\Project\Carilex\E-Signal\i2c\200323-1\200323-1\I2C_SUB..c" 1
 230  0006              	IF (200000< 0x40B) AND (200000> 0403h)
 230  0006              ;# 230 "F:\Project\Carilex\E-Signal\i2c\200323-1\200323-1\I2C_SUB..c" 1
 230  0006              	MOV A,0 
 230  0006              ;# 230 "F:\Project\Carilex\E-Signal\i2c\200323-1\200323-1\I2C_SUB..c" 1
 230  0006              	CALL __DELAYX6 + 0x40a -200000
 230  0006              	ENDIF
 230  0006              ;# 230 "F:\Project\Carilex\E-Signal\i2c\200323-1\200323-1\I2C_SUB..c" 1
 230  0006              	IF (200000 >= 0x40b) AND ((((200000-9)%0402h)/4+1)>256)
 230  0006              ;# 230 "F:\Project\Carilex\E-Signal\i2c\200323-1\200323-1\I2C_SUB..c" 1
 230  0006              	MOV A,(200000-9)/0402h
 230  0006              ;# 230 "F:\Project\Carilex\E-Signal\i2c\200323-1\200323-1\I2C_SUB..c" 1
 230  0006              	MOV _builtin_holtek_delay_2,A
 230  0006              ;# 230 "F:\Project\Carilex\E-Signal\i2c\200323-1\200323-1\I2C_SUB..c" 1
 230  0006              	MOV A,0
 230  0006              ;# 230 "F:\Project\Carilex\E-Signal\i2c\200323-1\200323-1\I2C_SUB..c" 1
 230  0006              	CALL __DELAYY5 +5- (((200000-9)%0402h)%6)
 230  0006              	ENDIF
 230  0006              ;# 230 "F:\Project\Carilex\E-Signal\i2c\200323-1\200323-1\I2C_SUB..c" 1
 230  0006              	IF (200000 >= 0x40b) AND ((((200000-9)%0402h)/4+1)<=256)
 230  0006              ;# 230 "F:\Project\Carilex\E-Signal\i2c\200323-1\200323-1\I2C_SUB..c" 1
 230  0006  0FC2        	MOV A,(200000-9)/0402h
 230  0007              ;# 230 "F:\Project\Carilex\E-Signal\i2c\200323-1\200323-1\I2C_SUB..c" 1
 230  0007  0080     E  	MOV _builtin_holtek_delay_2,A
 230  0008              ;# 230 "F:\Project\Carilex\E-Signal\i2c\200323-1\200323-1\I2C_SUB..c" 1
 230  0008  0FED        	MOV A,((200000-9)%0402h)/4+1
 230  0009              ;# 230 "F:\Project\Carilex\E-Signal\i2c\200323-1\200323-1\I2C_SUB..c" 1
 230  0009  2000     E  	CALL __DELAYY3 +3-(((200000-9)%0402h)%4)
"File: I2C_SUB..c    Assembler  Version HGASM0202      Page 47

 230  000A              	ENDIF
 231  000A              #line 231 "F:\Project\Carilex\E-Signal\i2c\200323-1\200323-1\I2C_SUB..c"
 231  000A  3214        	set [20].4
 232  000B              #line 232 "F:\Project\Carilex\E-Signal\i2c\200323-1\200323-1\I2C_SUB..c"
 232  000B  30A5        	set [37].1
 232  000C              ;# 232 "F:\Project\Carilex\E-Signal\i2c\200323-1\200323-1\I2C_SUB..c" 1
 232  000C              	IF 200000>263690
 232  000C              ;# 232 "F:\Project\Carilex\E-Signal\i2c\200323-1\200323-1\I2C_SUB..c" 1
 232  000C              	ERRMESSAGE 'the value 200000of the argument exceeds the maxinum 263690'
 232  000C              	ENDIF
 232  000C              ;# 232 "F:\Project\Carilex\E-Signal\i2c\200323-1\200323-1\I2C_SUB..c" 1
 232  000C              	IF 200000<0
 232  000C              ;# 232 "F:\Project\Carilex\E-Signal\i2c\200323-1\200323-1\I2C_SUB..c" 1
 232  000C              	ERRMESSAGE 'the value 200000 of the argument exceeds the mininum 0'
 232  000C              	ENDIF
 232  000C              ;# 232 "F:\Project\Carilex\E-Signal\i2c\200323-1\200323-1\I2C_SUB..c" 1
 232  000C              	IF 200000==0
 232  000C              ;# 232 "F:\Project\Carilex\E-Signal\i2c\200323-1\200323-1\I2C_SUB..c" 1
 232  000C              	JMP $
 232  000C              	ENDIF
 232  000C              ;# 232 "F:\Project\Carilex\E-Signal\i2c\200323-1\200323-1\I2C_SUB..c" 1
 232  000C              	IF 200000==1
 232  000C              ;# 232 "F:\Project\Carilex\E-Signal\i2c\200323-1\200323-1\I2C_SUB..c" 1
 232  000C              	NOP
 232  000C              	ENDIF
 232  000C              ;# 232 "F:\Project\Carilex\E-Signal\i2c\200323-1\200323-1\I2C_SUB..c" 1
 232  000C              	IF 200000==2
 232  000C              ;# 232 "F:\Project\Carilex\E-Signal\i2c\200323-1\200323-1\I2C_SUB..c" 1
 232  000C              	NOP
 232  000C              ;# 232 "F:\Project\Carilex\E-Signal\i2c\200323-1\200323-1\I2C_SUB..c" 1
 232  000C              	NOP
 232  000C              	ENDIF
 232  000C              ;# 232 "F:\Project\Carilex\E-Signal\i2c\200323-1\200323-1\I2C_SUB..c" 1
 232  000C              	IF 200000==3
 232  000C              ;# 232 "F:\Project\Carilex\E-Signal\i2c\200323-1\200323-1\I2C_SUB..c" 1
 232  000C              	NOP
 232  000C              ;# 232 "F:\Project\Carilex\E-Signal\i2c\200323-1\200323-1\I2C_SUB..c" 1
 232  000C              	NOP
 232  000C              ;# 232 "F:\Project\Carilex\E-Signal\i2c\200323-1\200323-1\I2C_SUB..c" 1
 232  000C              	NOP
 232  000C              	ENDIF
 232  000C              ;# 232 "F:\Project\Carilex\E-Signal\i2c\200323-1\200323-1\I2C_SUB..c" 1
 232  000C              	IF (200000<8) AND (200000>3)
 232  000C              ;# 232 "F:\Project\Carilex\E-Signal\i2c\200323-1\200323-1\I2C_SUB..c" 1
 232  000C              	CALL __DELAY3 + 7 -200000
 232  000C              	ENDIF
 232  000C              ;# 232 "F:\Project\Carilex\E-Signal\i2c\200323-1\200323-1\I2C_SUB..c" 1
 232  000C              	IF (200000< 0404h) AND (200000>7)
 232  000C              ;# 232 "F:\Project\Carilex\E-Signal\i2c\200323-1\200323-1\I2C_SUB..c" 1
 232  000C              	MOV A,200000/4-1
 232  000C              ;# 232 "F:\Project\Carilex\E-Signal\i2c\200323-1\200323-1\I2C_SUB..c" 1
 232  000C              	CALL __DELAYX3 + 3 -(200000 MOD 4)
 232  000C              	ENDIF
 232  000C              ;# 232 "F:\Project\Carilex\E-Signal\i2c\200323-1\200323-1\I2C_SUB..c" 1
 232  000C              	IF (200000< 0x40B) AND (200000> 0403h)
 232  000C              ;# 232 "F:\Project\Carilex\E-Signal\i2c\200323-1\200323-1\I2C_SUB..c" 1
 232  000C              	MOV A,0 
 232  000C              ;# 232 "F:\Project\Carilex\E-Signal\i2c\200323-1\200323-1\I2C_SUB..c" 1
 232  000C              	CALL __DELAYX6 + 0x40a -200000
 232  000C              	ENDIF
"File: I2C_SUB..c    Assembler  Version HGASM0202      Page 48

 232  000C              ;# 232 "F:\Project\Carilex\E-Signal\i2c\200323-1\200323-1\I2C_SUB..c" 1
 232  000C              	IF (200000 >= 0x40b) AND ((((200000-9)%0402h)/4+1)>256)
 232  000C              ;# 232 "F:\Project\Carilex\E-Signal\i2c\200323-1\200323-1\I2C_SUB..c" 1
 232  000C              	MOV A,(200000-9)/0402h
 232  000C              ;# 232 "F:\Project\Carilex\E-Signal\i2c\200323-1\200323-1\I2C_SUB..c" 1
 232  000C              	MOV _builtin_holtek_delay_2,A
 232  000C              ;# 232 "F:\Project\Carilex\E-Signal\i2c\200323-1\200323-1\I2C_SUB..c" 1
 232  000C              	MOV A,0
 232  000C              ;# 232 "F:\Project\Carilex\E-Signal\i2c\200323-1\200323-1\I2C_SUB..c" 1
 232  000C              	CALL __DELAYY5 +5- (((200000-9)%0402h)%6)
 232  000C              	ENDIF
 232  000C              ;# 232 "F:\Project\Carilex\E-Signal\i2c\200323-1\200323-1\I2C_SUB..c" 1
 232  000C              	IF (200000 >= 0x40b) AND ((((200000-9)%0402h)/4+1)<=256)
 232  000C              ;# 232 "F:\Project\Carilex\E-Signal\i2c\200323-1\200323-1\I2C_SUB..c" 1
 232  000C  0FC2        	MOV A,(200000-9)/0402h
 232  000D              ;# 232 "F:\Project\Carilex\E-Signal\i2c\200323-1\200323-1\I2C_SUB..c" 1
 232  000D  0080     E  	MOV _builtin_holtek_delay_2,A
 232  000E              ;# 232 "F:\Project\Carilex\E-Signal\i2c\200323-1\200323-1\I2C_SUB..c" 1
 232  000E  0FED        	MOV A,((200000-9)%0402h)/4+1
 232  000F              ;# 232 "F:\Project\Carilex\E-Signal\i2c\200323-1\200323-1\I2C_SUB..c" 1
 232  000F  2000     E  	CALL __DELAYY3 +3-(((200000-9)%0402h)%4)
 232  0010              	ENDIF
 232  0010  0003        	ret
 232  0011              _TestGPIO endp
 232  0011              #line 232 "F:\Project\Carilex\E-Signal\i2c\200323-1\200323-1\I2C_SUB..c"
 232  0011              #pragma debug scope 1 1
 232  0011              public _InitTOF
 232  0011              #pragma debug scope 16 1
 238  0011              #line 238 "F:\Project\Carilex\E-Signal\i2c\200323-1\200323-1\I2C_SUB..c"
 238  0000              _InitTOF .section 'code'
 238  0000              _InitTOF proc
 238  0000              public _InitTOF_2
 238  0000  0002[           local _InitTOF_2 db 2 dup(?)	; 2,0
            00
            ]
 238  0002              #pragma debug pointer 44 8 16
 238  0002              #pragma debug pointer 44 8 16
 238  0002              #pragma debug variable 44 16 _InitTOF_2+0 "buf"
 241  0002              #line 241 "F:\Project\Carilex\E-Signal\i2c\200323-1\200323-1\I2C_SUB..c"
 241  0000  0F01        	mov a,1
 241  0001  0080     R  	mov _ByteWriteTOF_2[2],a
 241  0002  0F07        	mov a,7
 241  0003  0080     R  	mov _ByteWriteTOF_2[0],a
 241  0004  0F02        	mov a,2
 241  0005  0080     R  	mov _ByteWriteTOF_2[1],a
 241  0006  2000     R  	call _ByteWriteTOF
 242  0007              #line 242 "F:\Project\Carilex\E-Signal\i2c\200323-1\200323-1\I2C_SUB..c"
 242  0007  0F01        	mov a,1
 242  0008  0080     R  	mov _ByteWriteTOF_2[2],a
 242  0009  0F08        	mov a,8
 242  000A  0080     R  	mov _ByteWriteTOF_2[0],a
 242  000B  0F02        	mov a,2
 242  000C  0080     R  	mov _ByteWriteTOF_2[1],a
 242  000D  2000     R  	call _ByteWriteTOF
 243  000E              #line 243 "F:\Project\Carilex\E-Signal\i2c\200323-1\200323-1\I2C_SUB..c"
 243  000E  1F00     R  	clr _ByteWriteTOF_2[2]
 243  000F  0F96        	mov a,-106
 243  0010  0080     R  	mov _ByteWriteTOF_2[0],a
 243  0011  1F00     R  	clr _ByteWriteTOF_2[1]
 243  0012  2000     R  	call _ByteWriteTOF
"File: I2C_SUB..c    Assembler  Version HGASM0202      Page 49

 244  0013              #line 244 "F:\Project\Carilex\E-Signal\i2c\200323-1\200323-1\I2C_SUB..c"
 244  0013  0FFD        	mov a,253
 244  0014  0080     R  	mov _ByteWriteTOF_2[2],a
 244  0015  0F97        	mov a,-105
 244  0016  0080     R  	mov _ByteWriteTOF_2[0],a
 244  0017  1F00     R  	clr _ByteWriteTOF_2[1]
 244  0018  2000     R  	call _ByteWriteTOF
 245  0019              #line 245 "F:\Project\Carilex\E-Signal\i2c\200323-1\200323-1\I2C_SUB..c"
 245  0019  1F00     R  	clr _ByteWriteTOF_2[2]
 245  001A  0FE3        	mov a,-29
 245  001B  0080     R  	mov _ByteWriteTOF_2[0],a
 245  001C  1F00     R  	clr _ByteWriteTOF_2[1]
 245  001D  2000     R  	call _ByteWriteTOF
 246  001E              #line 246 "F:\Project\Carilex\E-Signal\i2c\200323-1\200323-1\I2C_SUB..c"
 246  001E  0F04        	mov a,4
 246  001F  0080     R  	mov _ByteWriteTOF_2[2],a
 246  0020  0FE4        	mov a,-28
 246  0021  0080     R  	mov _ByteWriteTOF_2[0],a
 246  0022  1F00     R  	clr _ByteWriteTOF_2[1]
 246  0023  2000     R  	call _ByteWriteTOF
 247  0024              #line 247 "F:\Project\Carilex\E-Signal\i2c\200323-1\200323-1\I2C_SUB..c"
 247  0024  0F02        	mov a,2
 247  0025  0080     R  	mov _ByteWriteTOF_2[2],a
 247  0026  0FE5        	mov a,-27
 247  0027  0080     R  	mov _ByteWriteTOF_2[0],a
 247  0028  1F00     R  	clr _ByteWriteTOF_2[1]
 247  0029  2000     R  	call _ByteWriteTOF
 248  002A              #line 248 "F:\Project\Carilex\E-Signal\i2c\200323-1\200323-1\I2C_SUB..c"
 248  002A  0F01        	mov a,1
 248  002B  0080     R  	mov _ByteWriteTOF_2[2],a
 248  002C  0FE6        	mov a,-26
 248  002D  0080     R  	mov _ByteWriteTOF_2[0],a
 248  002E  1F00     R  	clr _ByteWriteTOF_2[1]
 248  002F  2000     R  	call _ByteWriteTOF
 249  0030              #line 249 "F:\Project\Carilex\E-Signal\i2c\200323-1\200323-1\I2C_SUB..c"
 249  0030  0F03        	mov a,3
 249  0031  0080     R  	mov _ByteWriteTOF_2[2],a
 249  0032  0FE7        	mov a,-25
 249  0033  0080     R  	mov _ByteWriteTOF_2[0],a
 249  0034  1F00     R  	clr _ByteWriteTOF_2[1]
 249  0035  2000     R  	call _ByteWriteTOF
 250  0036              #line 250 "F:\Project\Carilex\E-Signal\i2c\200323-1\200323-1\I2C_SUB..c"
 250  0036  0F02        	mov a,2
 250  0037  0080     R  	mov _ByteWriteTOF_2[2],a
 250  0038  0FF5        	mov a,-11
 250  0039  0080     R  	mov _ByteWriteTOF_2[0],a
 250  003A  1F00     R  	clr _ByteWriteTOF_2[1]
 250  003B  2000     R  	call _ByteWriteTOF
 251  003C              #line 251 "F:\Project\Carilex\E-Signal\i2c\200323-1\200323-1\I2C_SUB..c"
 251  003C  0F05        	mov a,5
 251  003D  0080     R  	mov _ByteWriteTOF_2[2],a
 251  003E  0FD9        	mov a,-39
 251  003F  0080     R  	mov _ByteWriteTOF_2[0],a
 251  0040  1F00     R  	clr _ByteWriteTOF_2[1]
 251  0041  2000     R  	call _ByteWriteTOF
 252  0042              #line 252 "F:\Project\Carilex\E-Signal\i2c\200323-1\200323-1\I2C_SUB..c"
 252  0042  0FCE        	mov a,206
 252  0043  0080     R  	mov _ByteWriteTOF_2[2],a
 252  0044  0FDB        	mov a,-37
 252  0045  0080     R  	mov _ByteWriteTOF_2[0],a
"File: I2C_SUB..c    Assembler  Version HGASM0202      Page 50

 252  0046  1F00     R  	clr _ByteWriteTOF_2[1]
 252  0047  2000     R  	call _ByteWriteTOF
 253  0048              #line 253 "F:\Project\Carilex\E-Signal\i2c\200323-1\200323-1\I2C_SUB..c"
 253  0048  0F03        	mov a,3
 253  0049  0080     R  	mov _ByteWriteTOF_2[2],a
 253  004A  0FDC        	mov a,-36
 253  004B  0080     R  	mov _ByteWriteTOF_2[0],a
 253  004C  1F00     R  	clr _ByteWriteTOF_2[1]
 253  004D  2000     R  	call _ByteWriteTOF
 254  004E              #line 254 "F:\Project\Carilex\E-Signal\i2c\200323-1\200323-1\I2C_SUB..c"
 254  004E  0FF8        	mov a,248
 254  004F  0080     R  	mov _ByteWriteTOF_2[2],a
 254  0050  0FDD        	mov a,-35
 254  0051  0080     R  	mov _ByteWriteTOF_2[0],a
 254  0052  1F00     R  	clr _ByteWriteTOF_2[1]
 254  0053  2000     R  	call _ByteWriteTOF
 255  0054              #line 255 "F:\Project\Carilex\E-Signal\i2c\200323-1\200323-1\I2C_SUB..c"
 255  0054  1F00     R  	clr _ByteWriteTOF_2[2]
 255  0055  0F9F        	mov a,-97
 255  0056  0080     R  	mov _ByteWriteTOF_2[0],a
 255  0057  1F00     R  	clr _ByteWriteTOF_2[1]
 255  0058  2000     R  	call _ByteWriteTOF
 256  0059              #line 256 "F:\Project\Carilex\E-Signal\i2c\200323-1\200323-1\I2C_SUB..c"
 256  0059  0F3C        	mov a,60
 256  005A  0080     R  	mov _ByteWriteTOF_2[2],a
 256  005B  0FA3        	mov a,-93
 256  005C  0080     R  	mov _ByteWriteTOF_2[0],a
 256  005D  1F00     R  	clr _ByteWriteTOF_2[1]
 256  005E  2000     R  	call _ByteWriteTOF
 257  005F              #line 257 "F:\Project\Carilex\E-Signal\i2c\200323-1\200323-1\I2C_SUB..c"
 257  005F  1F00     R  	clr _ByteWriteTOF_2[2]
 257  0060  0FB7        	mov a,-73
 257  0061  0080     R  	mov _ByteWriteTOF_2[0],a
 257  0062  1F00     R  	clr _ByteWriteTOF_2[1]
 257  0063  2000     R  	call _ByteWriteTOF
 258  0064              #line 258 "F:\Project\Carilex\E-Signal\i2c\200323-1\200323-1\I2C_SUB..c"
 258  0064  0F3C        	mov a,60
 258  0065  0080     R  	mov _ByteWriteTOF_2[2],a
 258  0066  0FBB        	mov a,-69
 258  0067  0080     R  	mov _ByteWriteTOF_2[0],a
 258  0068  1F00     R  	clr _ByteWriteTOF_2[1]
 258  0069  2000     R  	call _ByteWriteTOF
 259  006A              #line 259 "F:\Project\Carilex\E-Signal\i2c\200323-1\200323-1\I2C_SUB..c"
 259  006A  0F09        	mov a,9
 259  006B  0080     R  	mov _ByteWriteTOF_2[2],a
 259  006C  0FB2        	mov a,-78
 259  006D  0080     R  	mov _ByteWriteTOF_2[0],a
 259  006E  1F00     R  	clr _ByteWriteTOF_2[1]
 259  006F  2000     R  	call _ByteWriteTOF
 260  0070              #line 260 "F:\Project\Carilex\E-Signal\i2c\200323-1\200323-1\I2C_SUB..c"
 260  0070  0F09        	mov a,9
 260  0071  0080     R  	mov _ByteWriteTOF_2[2],a
 260  0072  0FCA        	mov a,-54
 260  0073  0080     R  	mov _ByteWriteTOF_2[0],a
 260  0074  1F00     R  	clr _ByteWriteTOF_2[1]
 260  0075  2000     R  	call _ByteWriteTOF
 261  0076              #line 261 "F:\Project\Carilex\E-Signal\i2c\200323-1\200323-1\I2C_SUB..c"
 261  0076  0F01        	mov a,1
 261  0077  0080     R  	mov _ByteWriteTOF_2[2],a
 261  0078  0F98        	mov a,-104
"File: I2C_SUB..c    Assembler  Version HGASM0202      Page 51

 261  0079  0080     R  	mov _ByteWriteTOF_2[0],a
 261  007A  0F01        	mov a,1
 261  007B  0080     R  	mov _ByteWriteTOF_2[1],a
 261  007C  2000     R  	call _ByteWriteTOF
 262  007D              #line 262 "F:\Project\Carilex\E-Signal\i2c\200323-1\200323-1\I2C_SUB..c"
 262  007D  0F17        	mov a,23
 262  007E  0080     R  	mov _ByteWriteTOF_2[2],a
 262  007F  0FB0        	mov a,-80
 262  0080  0080     R  	mov _ByteWriteTOF_2[0],a
 262  0081  0F01        	mov a,1
 262  0082  0080     R  	mov _ByteWriteTOF_2[1],a
 262  0083  2000     R  	call _ByteWriteTOF
 263  0084              #line 263 "F:\Project\Carilex\E-Signal\i2c\200323-1\200323-1\I2C_SUB..c"
 263  0084  1F00     R  	clr _ByteWriteTOF_2[2]
 263  0085  0FAD        	mov a,-83
 263  0086  0080     R  	mov _ByteWriteTOF_2[0],a
 263  0087  0F01        	mov a,1
 263  0088  0080     R  	mov _ByteWriteTOF_2[1],a
 263  0089  2000     R  	call _ByteWriteTOF
 264  008A              #line 264 "F:\Project\Carilex\E-Signal\i2c\200323-1\200323-1\I2C_SUB..c"
 264  008A  0F05        	mov a,5
 264  008B  0080     R  	mov _ByteWriteTOF_2[2],a
 264  008C  1F80     R  	set _ByteWriteTOF_2[0]
 264  008D  1F00     R  	clr _ByteWriteTOF_2[1]
 264  008E  2000     R  	call _ByteWriteTOF
 265  008F              #line 265 "F:\Project\Carilex\E-Signal\i2c\200323-1\200323-1\I2C_SUB..c"
 265  008F  0F05        	mov a,5
 265  0090  0080     R  	mov _ByteWriteTOF_2[2],a
 265  0091  1F00     R  	clr _ByteWriteTOF_2[0]
 265  0092  0F01        	mov a,1
 265  0093  0080     R  	mov _ByteWriteTOF_2[1],a
 265  0094  2000     R  	call _ByteWriteTOF
 266  0095              #line 266 "F:\Project\Carilex\E-Signal\i2c\200323-1\200323-1\I2C_SUB..c"
 266  0095  0F05        	mov a,5
 266  0096  0080     R  	mov _ByteWriteTOF_2[2],a
 266  0097  0F99        	mov a,-103
 266  0098  0080     R  	mov _ByteWriteTOF_2[0],a
 266  0099  0F01        	mov a,1
 266  009A  0080     R  	mov _ByteWriteTOF_2[1],a
 266  009B  2000     R  	call _ByteWriteTOF
 267  009C              #line 267 "F:\Project\Carilex\E-Signal\i2c\200323-1\200323-1\I2C_SUB..c"
 267  009C  0F1B        	mov a,27
 267  009D  0080     R  	mov _ByteWriteTOF_2[2],a
 267  009E  0FA6        	mov a,-90
 267  009F  0080     R  	mov _ByteWriteTOF_2[0],a
 267  00A0  0F01        	mov a,1
 267  00A1  0080     R  	mov _ByteWriteTOF_2[1],a
 267  00A2  2000     R  	call _ByteWriteTOF
 268  00A3              #line 268 "F:\Project\Carilex\E-Signal\i2c\200323-1\200323-1\I2C_SUB..c"
 268  00A3  0F3E        	mov a,62
 268  00A4  0080     R  	mov _ByteWriteTOF_2[2],a
 268  00A5  0FAC        	mov a,-84
 268  00A6  0080     R  	mov _ByteWriteTOF_2[0],a
 268  00A7  0F01        	mov a,1
 268  00A8  0080     R  	mov _ByteWriteTOF_2[1],a
 268  00A9  2000     R  	call _ByteWriteTOF
 269  00AA              #line 269 "F:\Project\Carilex\E-Signal\i2c\200323-1\200323-1\I2C_SUB..c"
 269  00AA  0F1F        	mov a,31
 269  00AB  0080     R  	mov _ByteWriteTOF_2[2],a
 269  00AC  0FA7        	mov a,-89
"File: I2C_SUB..c    Assembler  Version HGASM0202      Page 52

 269  00AD  0080     R  	mov _ByteWriteTOF_2[0],a
 269  00AE  0F01        	mov a,1
 269  00AF  0080     R  	mov _ByteWriteTOF_2[1],a
 269  00B0  2000     R  	call _ByteWriteTOF
 270  00B1              #line 270 "F:\Project\Carilex\E-Signal\i2c\200323-1\200323-1\I2C_SUB..c"
 270  00B1  1F00     R  	clr _ByteWriteTOF_2[2]
 270  00B2  0F30        	mov a,48
 270  00B3  0080     R  	mov _ByteWriteTOF_2[0],a
 270  00B4  1F00     R  	clr _ByteWriteTOF_2[1]
 270  00B5  2000     R  	call _ByteWriteTOF
 273  00B6              #line 273 "F:\Project\Carilex\E-Signal\i2c\200323-1\200323-1\I2C_SUB..c"
 273  00B6  0F10        	mov a,16
 273  00B7  0080     R  	mov _ByteWriteTOF_2[2],a
 273  00B8  0F11        	mov a,17
 273  00B9  0080     R  	mov _ByteWriteTOF_2[0],a
 273  00BA  1F00     R  	clr _ByteWriteTOF_2[1]
 273  00BB  2000     R  	call _ByteWriteTOF
 274  00BC              #line 274 "F:\Project\Carilex\E-Signal\i2c\200323-1\200323-1\I2C_SUB..c"
 274  00BC  0F30        	mov a,48
 274  00BD  0080     R  	mov _ByteWriteTOF_2[2],a
 274  00BE  0F0A        	mov a,10
 274  00BF  0080     R  	mov _ByteWriteTOF_2[0],a
 274  00C0  0F01        	mov a,1
 274  00C1  0080     R  	mov _ByteWriteTOF_2[1],a
 274  00C2  2000     R  	call _ByteWriteTOF
 275  00C3              #line 275 "F:\Project\Carilex\E-Signal\i2c\200323-1\200323-1\I2C_SUB..c"
 275  00C3  0F46        	mov a,70
 275  00C4  0080     R  	mov _ByteWriteTOF_2[2],a
 275  00C5  0F3F        	mov a,63
 275  00C6  0080     R  	mov _ByteWriteTOF_2[0],a
 275  00C7  1F00     R  	clr _ByteWriteTOF_2[1]
 275  00C8  2000     R  	call _ByteWriteTOF
 276  00C9              #line 276 "F:\Project\Carilex\E-Signal\i2c\200323-1\200323-1\I2C_SUB..c"
 276  00C9  1F80     R  	set _ByteWriteTOF_2[2]
 276  00CA  0F31        	mov a,49
 276  00CB  0080     R  	mov _ByteWriteTOF_2[0],a
 276  00CC  1F00     R  	clr _ByteWriteTOF_2[1]
 276  00CD  2000     R  	call _ByteWriteTOF
 277  00CE              #line 277 "F:\Project\Carilex\E-Signal\i2c\200323-1\200323-1\I2C_SUB..c"
 277  00CE  0F63        	mov a,99
 277  00CF  0080     R  	mov _ByteWriteTOF_2[2],a
 277  00D0  0F40        	mov a,64
 277  00D1  0080     R  	mov _ByteWriteTOF_2[0],a
 277  00D2  1F00     R  	clr _ByteWriteTOF_2[1]
 277  00D3  2000     R  	call _ByteWriteTOF
 278  00D4              #line 278 "F:\Project\Carilex\E-Signal\i2c\200323-1\200323-1\I2C_SUB..c"
 278  00D4  0F01        	mov a,1
 278  00D5  0080     R  	mov _ByteWriteTOF_2[2],a
 278  00D6  0F2E        	mov a,46
 278  00D7  0080     R  	mov _ByteWriteTOF_2[0],a
 278  00D8  1F00     R  	clr _ByteWriteTOF_2[1]
 278  00D9  2000     R  	call _ByteWriteTOF
 281  00DA              #line 281 "F:\Project\Carilex\E-Signal\i2c\200323-1\200323-1\I2C_SUB..c"
 281  00DA  0F09        	mov a,9
 281  00DB  0080     R  	mov _ByteWriteTOF_2[2],a
 281  00DC  0F1B        	mov a,27
 281  00DD  0080     R  	mov _ByteWriteTOF_2[0],a
 281  00DE  1F00     R  	clr _ByteWriteTOF_2[1]
 281  00DF  2000     R  	call _ByteWriteTOF
 282  00E0              #line 282 "F:\Project\Carilex\E-Signal\i2c\200323-1\200323-1\I2C_SUB..c"
"File: I2C_SUB..c    Assembler  Version HGASM0202      Page 53

 282  00E0  0F31        	mov a,49
 282  00E1  0080     R  	mov _ByteWriteTOF_2[2],a
 282  00E2  0F3E        	mov a,62
 282  00E3  0080     R  	mov _ByteWriteTOF_2[0],a
 282  00E4  1F00     R  	clr _ByteWriteTOF_2[1]
 282  00E5  2000     R  	call _ByteWriteTOF
 283  00E6              #line 283 "F:\Project\Carilex\E-Signal\i2c\200323-1\200323-1\I2C_SUB..c"
 283  00E6  0F24        	mov a,36
 283  00E7  0080     R  	mov _ByteWriteTOF_2[2],a
 283  00E8  0F14        	mov a,20
 283  00E9  0080     R  	mov _ByteWriteTOF_2[0],a
 283  00EA  1F00     R  	clr _ByteWriteTOF_2[1]
 283  00EB  2000     R  	call _ByteWriteTOF
 285  00EC              #line 285 "F:\Project\Carilex\E-Signal\i2c\200323-1\200323-1\I2C_SUB..c"
 285  00EC  1F00     R  	clr _ByteWriteTOF_2[2]
 285  00ED  0F16        	mov a,22
 285  00EE  0080     R  	mov _ByteWriteTOF_2[0],a
 285  00EF  1F00     R  	clr _ByteWriteTOF_2[1]
 285  00F0  2000     R  	call _ByteWriteTOF
 286  00F1              #line 286 "F:\Project\Carilex\E-Signal\i2c\200323-1\200323-1\I2C_SUB..c"
 286  00F1  0700     R  	mov a,_InitTOF_2[0]
 286  00F2  0083        	mov mp,a
 286  00F3  0700     R  	mov a,_InitTOF_2[1]
 286  00F4  0087        	mov sbp,a
 286  00F5  0707        	mov a,sbp
 286  00F6  0084        	mov bp,a
 286  00F7  0F00        	mov a,0
 286  00F8  0082        	mov ir,a
 287  00F9              #line 287 "F:\Project\Carilex\E-Signal\i2c\200323-1\200323-1\I2C_SUB..c"
 287  00F9  2800     R  	jmp _L41
 287  00FA              _L42:
 288  00FA              #line 288 "F:\Project\Carilex\E-Signal\i2c\200323-1\200323-1\I2C_SUB..c"
 288  00FA  0F01        	mov a,1
 288  00FB  0080     R  	mov _ReadTOF_2[4],a
 288  00FC  0700     E  	mov a,rb
 288  00FD  0080     R  	mov _ReadTOF_2[2],a
 288  00FE  0700     E  	mov a,rc
 288  00FF  0080     R  	mov _ReadTOF_2[3],a
 288  0100  0F4D        	mov a,77
 288  0101  0080     R  	mov _ReadTOF_2[0],a
 288  0102  1F00     R  	clr _ReadTOF_2[1]
 288  0103  2000     R  	call _ReadTOF
 289  0104              #line 289 "F:\Project\Carilex\E-Signal\i2c\200323-1\200323-1\I2C_SUB..c"
 289  0104  0F01        	mov a,1
 289  0105  0300     R  	add a,_InitTOF_2[0]
 289  0106  0083        	mov mp,a
 289  0107  0F00        	mov a,0
 289  0108  1300     R  	adc a,_InitTOF_2[1]
 289  0109  0087        	mov sbp,a
 289  010A  0707        	mov a,sbp
 289  010B  0084        	mov bp,a
 289  010C  0FFB        	mov a,251
 289  010D  0082        	mov ir,a
 290  010E              #line 290 "F:\Project\Carilex\E-Signal\i2c\200323-1\200323-1\I2C_SUB..c"
 290  010E              ;# 290 "F:\Project\Carilex\E-Signal\i2c\200323-1\200323-1\I2C_SUB..c" 1
 290  010E              	IF 20000>263690
 290  010E              ;# 290 "F:\Project\Carilex\E-Signal\i2c\200323-1\200323-1\I2C_SUB..c" 1
 290  010E              	ERRMESSAGE 'the value 20000of the argument exceeds the maxinum 263690'
 290  010E              	ENDIF
 290  010E              ;# 290 "F:\Project\Carilex\E-Signal\i2c\200323-1\200323-1\I2C_SUB..c" 1
"File: I2C_SUB..c    Assembler  Version HGASM0202      Page 54

 290  010E              	IF 20000<0
 290  010E              ;# 290 "F:\Project\Carilex\E-Signal\i2c\200323-1\200323-1\I2C_SUB..c" 1
 290  010E              	ERRMESSAGE 'the value 20000 of the argument exceeds the mininum 0'
 290  010E              	ENDIF
 290  010E              ;# 290 "F:\Project\Carilex\E-Signal\i2c\200323-1\200323-1\I2C_SUB..c" 1
 290  010E              	IF 20000==0
 290  010E              ;# 290 "F:\Project\Carilex\E-Signal\i2c\200323-1\200323-1\I2C_SUB..c" 1
 290  010E              	JMP $
 290  010E              	ENDIF
 290  010E              ;# 290 "F:\Project\Carilex\E-Signal\i2c\200323-1\200323-1\I2C_SUB..c" 1
 290  010E              	IF 20000==1
 290  010E              ;# 290 "F:\Project\Carilex\E-Signal\i2c\200323-1\200323-1\I2C_SUB..c" 1
 290  010E              	NOP
 290  010E              	ENDIF
 290  010E              ;# 290 "F:\Project\Carilex\E-Signal\i2c\200323-1\200323-1\I2C_SUB..c" 1
 290  010E              	IF 20000==2
 290  010E              ;# 290 "F:\Project\Carilex\E-Signal\i2c\200323-1\200323-1\I2C_SUB..c" 1
 290  010E              	NOP
 290  010E              ;# 290 "F:\Project\Carilex\E-Signal\i2c\200323-1\200323-1\I2C_SUB..c" 1
 290  010E              	NOP
 290  010E              	ENDIF
 290  010E              ;# 290 "F:\Project\Carilex\E-Signal\i2c\200323-1\200323-1\I2C_SUB..c" 1
 290  010E              	IF 20000==3
 290  010E              ;# 290 "F:\Project\Carilex\E-Signal\i2c\200323-1\200323-1\I2C_SUB..c" 1
 290  010E              	NOP
 290  010E              ;# 290 "F:\Project\Carilex\E-Signal\i2c\200323-1\200323-1\I2C_SUB..c" 1
 290  010E              	NOP
 290  010E              ;# 290 "F:\Project\Carilex\E-Signal\i2c\200323-1\200323-1\I2C_SUB..c" 1
 290  010E              	NOP
 290  010E              	ENDIF
 290  010E              ;# 290 "F:\Project\Carilex\E-Signal\i2c\200323-1\200323-1\I2C_SUB..c" 1
 290  010E              	IF (20000<8) AND (20000>3)
 290  010E              ;# 290 "F:\Project\Carilex\E-Signal\i2c\200323-1\200323-1\I2C_SUB..c" 1
 290  010E              	CALL __DELAY3 + 7 -20000
 290  010E              	ENDIF
 290  010E              ;# 290 "F:\Project\Carilex\E-Signal\i2c\200323-1\200323-1\I2C_SUB..c" 1
 290  010E              	IF (20000< 0404h) AND (20000>7)
 290  010E              ;# 290 "F:\Project\Carilex\E-Signal\i2c\200323-1\200323-1\I2C_SUB..c" 1
 290  010E              	MOV A,20000/4-1
 290  010E              ;# 290 "F:\Project\Carilex\E-Signal\i2c\200323-1\200323-1\I2C_SUB..c" 1
 290  010E              	CALL __DELAYX3 + 3 -(20000 MOD 4)
 290  010E              	ENDIF
 290  010E              ;# 290 "F:\Project\Carilex\E-Signal\i2c\200323-1\200323-1\I2C_SUB..c" 1
 290  010E              	IF (20000< 0x40B) AND (20000> 0403h)
 290  010E              ;# 290 "F:\Project\Carilex\E-Signal\i2c\200323-1\200323-1\I2C_SUB..c" 1
 290  010E              	MOV A,0 
 290  010E              ;# 290 "F:\Project\Carilex\E-Signal\i2c\200323-1\200323-1\I2C_SUB..c" 1
 290  010E              	CALL __DELAYX6 + 0x40a -20000
 290  010E              	ENDIF
 290  010E              ;# 290 "F:\Project\Carilex\E-Signal\i2c\200323-1\200323-1\I2C_SUB..c" 1
 290  010E              	IF (20000 >= 0x40b) AND ((((20000-9)%0402h)/4+1)>256)
 290  010E              ;# 290 "F:\Project\Carilex\E-Signal\i2c\200323-1\200323-1\I2C_SUB..c" 1
 290  010E              	MOV A,(20000-9)/0402h
 290  010E              ;# 290 "F:\Project\Carilex\E-Signal\i2c\200323-1\200323-1\I2C_SUB..c" 1
 290  010E              	MOV _builtin_holtek_delay_2,A
 290  010E              ;# 290 "F:\Project\Carilex\E-Signal\i2c\200323-1\200323-1\I2C_SUB..c" 1
 290  010E              	MOV A,0
 290  010E              ;# 290 "F:\Project\Carilex\E-Signal\i2c\200323-1\200323-1\I2C_SUB..c" 1
 290  010E              	CALL __DELAYY5 +5- (((20000-9)%0402h)%6)
 290  010E              	ENDIF
"File: I2C_SUB..c    Assembler  Version HGASM0202      Page 55

 290  010E              ;# 290 "F:\Project\Carilex\E-Signal\i2c\200323-1\200323-1\I2C_SUB..c" 1
 290  010E              	IF (20000 >= 0x40b) AND ((((20000-9)%0402h)/4+1)<=256)
 290  010E              ;# 290 "F:\Project\Carilex\E-Signal\i2c\200323-1\200323-1\I2C_SUB..c" 1
 290  010E  0F13        	MOV A,(20000-9)/0402h
 290  010F              ;# 290 "F:\Project\Carilex\E-Signal\i2c\200323-1\200323-1\I2C_SUB..c" 1
 290  010F  0080     E  	MOV _builtin_holtek_delay_2,A
 290  0110              ;# 290 "F:\Project\Carilex\E-Signal\i2c\200323-1\200323-1\I2C_SUB..c" 1
 290  0110  0F7D        	MOV A,((20000-9)%0402h)/4+1
 290  0111              ;# 290 "F:\Project\Carilex\E-Signal\i2c\200323-1\200323-1\I2C_SUB..c" 1
 290  0111  2000     E  	CALL __DELAYY3 +3-(((20000-9)%0402h)%4)
 290  0112              	ENDIF
 291  0112              #line 291 "F:\Project\Carilex\E-Signal\i2c\200323-1\200323-1\I2C_SUB..c"
 291  0112  2000     E  	call _uart_sent
 291  0113              _L41:
 287  0113              #line 287 "F:\Project\Carilex\E-Signal\i2c\200323-1\200323-1\I2C_SUB..c"
 287  0113  0700     R  	mov a,_InitTOF_2[0]
 287  0114  0080     E  	mov rb,a
 287  0115  0700     R  	mov a,_InitTOF_2[1]
 287  0116  0080     E  	mov rc,a
 287  0117  0700     E  	mov a,rb
 287  0118  0083        	mov mp,a
 287  0119  0700     E  	mov a,rc
 287  011A  0087        	mov sbp,a
 287  011B  2000     E  	call _Crom2Prom
 287  011C  0080     E  	mov ra,a
 287  011D  3800     E  	snz ra.0
 287  011E  2800     R  	jmp _L42
 287  011F  0003        	ret
 287  0120              _InitTOF endp
 287  0120              #line 287 "F:\Project\Carilex\E-Signal\i2c\200323-1\200323-1\I2C_SUB..c"
 287  0120              #pragma debug scope 1 1
 287  0120              public _doScan
 287  0120              #pragma debug scope 17 1
 297  0120              #line 297 "F:\Project\Carilex\E-Signal\i2c\200323-1\200323-1\I2C_SUB..c"
 297  0000              _doScan .section 'code'
 297  0000              _doScan proc
 297  0000              public _doScan_2
 297  0000  0003[           local _doScan_2 db 3 dup(?)	; 2,1
            00
            ]
 297  0003              #pragma debug pointer 45 8 17
 297  0003              #pragma debug pointer 45 8 17
 297  0003              #pragma debug variable 45 17 _doScan_2+0 "buffer"
 297  0003              #pragma debug variable 8 17 _doScan_2+2 "cnt"
 299  0003              #line 299 "F:\Project\Carilex\E-Signal\i2c\200323-1\200323-1\I2C_SUB..c"
 299  0000  0700     R  	mov a,_doScan_2[0]
 299  0001  0083        	mov mp,a
 299  0002  0700     R  	mov a,_doScan_2[1]
 299  0003  0087        	mov sbp,a
 299  0004  0707        	mov a,sbp
 299  0005  0084        	mov bp,a
 299  0006  0F00        	mov a,0
 299  0007  0082        	mov ir,a
 299  0008              _L44:
 297  0008              #line 297 "F:\Project\Carilex\E-Signal\i2c\200323-1\200323-1\I2C_SUB..c"
 297  0008  1F00     R  	clr _doScan_2[2]
 297  0009              _L46:
 301  0009              #line 301 "F:\Project\Carilex\E-Signal\i2c\200323-1\200323-1\I2C_SUB..c"
 301  0009  0700     R  	mov a,_doScan_2[0]
 301  000A  0080     E  	mov rb,a
"File: I2C_SUB..c    Assembler  Version HGASM0202      Page 56

 301  000B  0700     R  	mov a,_doScan_2[1]
 301  000C  0080     E  	mov rc,a
 301  000D  0700     E  	mov a,rb
 301  000E  0083        	mov mp,a
 301  000F  0700     E  	mov a,rc
 301  0010  0087        	mov sbp,a
 301  0011  2000     E  	call _Crom2Prom
 301  0012  0080     E  	mov ra,a
 301  0013  3C00     E  	sz ra.0
 301  0014  2800     R  	jmp _L56
 302  0015              #line 302 "F:\Project\Carilex\E-Signal\i2c\200323-1\200323-1\I2C_SUB..c"
 302  0015  0F01        	mov a,1
 302  0016  0080     R  	mov _ReadTOF_2[4],a
 302  0017  0700     E  	mov a,rb
 302  0018  0080     R  	mov _ReadTOF_2[2],a
 302  0019  0700     E  	mov a,rc
 302  001A  0080     R  	mov _ReadTOF_2[3],a
 302  001B  0F4D        	mov a,77
 302  001C  0080     R  	mov _ReadTOF_2[0],a
 302  001D  1F00     R  	clr _ReadTOF_2[1]
 302  001E  2000     R  	call _ReadTOF
 303  001F              #line 303 "F:\Project\Carilex\E-Signal\i2c\200323-1\200323-1\I2C_SUB..c"
 303  001F              ;# 303 "F:\Project\Carilex\E-Signal\i2c\200323-1\200323-1\I2C_SUB..c" 1
 303  001F              	IF 10>263690
 303  001F              ;# 303 "F:\Project\Carilex\E-Signal\i2c\200323-1\200323-1\I2C_SUB..c" 1
 303  001F              	ERRMESSAGE 'the value 10of the argument exceeds the maxinum 263690'
 303  001F              	ENDIF
 303  001F              ;# 303 "F:\Project\Carilex\E-Signal\i2c\200323-1\200323-1\I2C_SUB..c" 1
 303  001F              	IF 10<0
 303  001F              ;# 303 "F:\Project\Carilex\E-Signal\i2c\200323-1\200323-1\I2C_SUB..c" 1
 303  001F              	ERRMESSAGE 'the value 10 of the argument exceeds the mininum 0'
 303  001F              	ENDIF
 303  001F              ;# 303 "F:\Project\Carilex\E-Signal\i2c\200323-1\200323-1\I2C_SUB..c" 1
 303  001F              	IF 10==0
 303  001F              ;# 303 "F:\Project\Carilex\E-Signal\i2c\200323-1\200323-1\I2C_SUB..c" 1
 303  001F              	JMP $
 303  001F              	ENDIF
 303  001F              ;# 303 "F:\Project\Carilex\E-Signal\i2c\200323-1\200323-1\I2C_SUB..c" 1
 303  001F              	IF 10==1
 303  001F              ;# 303 "F:\Project\Carilex\E-Signal\i2c\200323-1\200323-1\I2C_SUB..c" 1
 303  001F              	NOP
 303  001F              	ENDIF
 303  001F              ;# 303 "F:\Project\Carilex\E-Signal\i2c\200323-1\200323-1\I2C_SUB..c" 1
 303  001F              	IF 10==2
 303  001F              ;# 303 "F:\Project\Carilex\E-Signal\i2c\200323-1\200323-1\I2C_SUB..c" 1
 303  001F              	NOP
 303  001F              ;# 303 "F:\Project\Carilex\E-Signal\i2c\200323-1\200323-1\I2C_SUB..c" 1
 303  001F              	NOP
 303  001F              	ENDIF
 303  001F              ;# 303 "F:\Project\Carilex\E-Signal\i2c\200323-1\200323-1\I2C_SUB..c" 1
 303  001F              	IF 10==3
 303  001F              ;# 303 "F:\Project\Carilex\E-Signal\i2c\200323-1\200323-1\I2C_SUB..c" 1
 303  001F              	NOP
 303  001F              ;# 303 "F:\Project\Carilex\E-Signal\i2c\200323-1\200323-1\I2C_SUB..c" 1
 303  001F              	NOP
 303  001F              ;# 303 "F:\Project\Carilex\E-Signal\i2c\200323-1\200323-1\I2C_SUB..c" 1
 303  001F              	NOP
 303  001F              	ENDIF
 303  001F              ;# 303 "F:\Project\Carilex\E-Signal\i2c\200323-1\200323-1\I2C_SUB..c" 1
 303  001F              	IF (10<8) AND (10>3)
"File: I2C_SUB..c    Assembler  Version HGASM0202      Page 57

 303  001F              ;# 303 "F:\Project\Carilex\E-Signal\i2c\200323-1\200323-1\I2C_SUB..c" 1
 303  001F              	CALL __DELAY3 + 7 -10
 303  001F              	ENDIF
 303  001F              ;# 303 "F:\Project\Carilex\E-Signal\i2c\200323-1\200323-1\I2C_SUB..c" 1
 303  001F              	IF (10< 0404h) AND (10>7)
 303  001F              ;# 303 "F:\Project\Carilex\E-Signal\i2c\200323-1\200323-1\I2C_SUB..c" 1
 303  001F  0F01        	MOV A,10/4-1
 303  0020              ;# 303 "F:\Project\Carilex\E-Signal\i2c\200323-1\200323-1\I2C_SUB..c" 1
 303  0020  2000     E  	CALL __DELAYX3 + 3 -(10 MOD 4)
 303  0021              	ENDIF
 303  0021              ;# 303 "F:\Project\Carilex\E-Signal\i2c\200323-1\200323-1\I2C_SUB..c" 1
 303  0021              	IF (10< 0x40B) AND (10> 0403h)
 303  0021              ;# 303 "F:\Project\Carilex\E-Signal\i2c\200323-1\200323-1\I2C_SUB..c" 1
 303  0021              	MOV A,0 
 303  0021              ;# 303 "F:\Project\Carilex\E-Signal\i2c\200323-1\200323-1\I2C_SUB..c" 1
 303  0021              	CALL __DELAYX6 + 0x40a -10
 303  0021              	ENDIF
 303  0021              ;# 303 "F:\Project\Carilex\E-Signal\i2c\200323-1\200323-1\I2C_SUB..c" 1
 303  0021              	IF (10 >= 0x40b) AND ((((10-9)%0402h)/4+1)>256)
 303  0021              ;# 303 "F:\Project\Carilex\E-Signal\i2c\200323-1\200323-1\I2C_SUB..c" 1
 303  0021              	MOV A,(10-9)/0402h
 303  0021              ;# 303 "F:\Project\Carilex\E-Signal\i2c\200323-1\200323-1\I2C_SUB..c" 1
 303  0021              	MOV _builtin_holtek_delay_2,A
 303  0021              ;# 303 "F:\Project\Carilex\E-Signal\i2c\200323-1\200323-1\I2C_SUB..c" 1
 303  0021              	MOV A,0
 303  0021              ;# 303 "F:\Project\Carilex\E-Signal\i2c\200323-1\200323-1\I2C_SUB..c" 1
 303  0021              	CALL __DELAYY5 +5- (((10-9)%0402h)%6)
 303  0021              	ENDIF
 303  0021              ;# 303 "F:\Project\Carilex\E-Signal\i2c\200323-1\200323-1\I2C_SUB..c" 1
 303  0021              	IF (10 >= 0x40b) AND ((((10-9)%0402h)/4+1)<=256)
 303  0021              ;# 303 "F:\Project\Carilex\E-Signal\i2c\200323-1\200323-1\I2C_SUB..c" 1
 303  0021              	MOV A,(10-9)/0402h
 303  0021              ;# 303 "F:\Project\Carilex\E-Signal\i2c\200323-1\200323-1\I2C_SUB..c" 1
 303  0021              	MOV _builtin_holtek_delay_2,A
 303  0021              ;# 303 "F:\Project\Carilex\E-Signal\i2c\200323-1\200323-1\I2C_SUB..c" 1
 303  0021              	MOV A,((10-9)%0402h)/4+1
 303  0021              ;# 303 "F:\Project\Carilex\E-Signal\i2c\200323-1\200323-1\I2C_SUB..c" 1
 303  0021              	CALL __DELAYY3 +3-(((10-9)%0402h)%4)
 303  0021              	ENDIF
 304  0021              #line 304 "F:\Project\Carilex\E-Signal\i2c\200323-1\200323-1\I2C_SUB..c"
 304  0021  1480     R  	inc _doScan_2[2]
 304  0022  0700     R  	mov a,_doScan_2[2]
 304  0023  0AFB        	sub a,251
 304  0024  390A        	snz z
 304  0025  2800     R  	jmp _L46
 305  0026              #line 305 "F:\Project\Carilex\E-Signal\i2c\200323-1\200323-1\I2C_SUB..c"
 305  0026  0F01        	mov a,1
 305  0027  0300     R  	add a,_doScan_2[0]
 305  0028  0083        	mov mp,a
 305  0029  0F00        	mov a,0
 305  002A  1300     R  	adc a,_doScan_2[1]
 305  002B  0087        	mov sbp,a
 305  002C  0707        	mov a,sbp
 305  002D  0084        	mov bp,a
 305  002E  0FFB        	mov a,251
 305  002F  0082        	mov ir,a
 306  0030              #line 306 "F:\Project\Carilex\E-Signal\i2c\200323-1\200323-1\I2C_SUB..c"
 306  0030  2000     E  	call _uart_sent
 306  0031  2800     R  	jmp _L44
 306  0032              _L56:
"File: I2C_SUB..c    Assembler  Version HGASM0202      Page 58

 312  0032              #line 312 "F:\Project\Carilex\E-Signal\i2c\200323-1\200323-1\I2C_SUB..c"
 312  0032  0F01        	mov a,1
 312  0033  0080     R  	mov _ByteWriteTOF_2[2],a
 312  0034  0F18        	mov a,24
 312  0035  0080     R  	mov _ByteWriteTOF_2[0],a
 312  0036  1F00     R  	clr _ByteWriteTOF_2[1]
 312  0037  2000     R  	call _ByteWriteTOF
 312  0038              _L53:
 313  0038              #line 313 "F:\Project\Carilex\E-Signal\i2c\200323-1\200323-1\I2C_SUB..c"
 313  0038  0700     R  	mov a,_doScan_2[0]
 313  0039  0080     E  	mov rb,a
 313  003A  0700     R  	mov a,_doScan_2[1]
 313  003B  0080     E  	mov rc,a
 313  003C  0700     E  	mov a,rb
 313  003D  0083        	mov mp,a
 313  003E  0700     E  	mov a,rc
 313  003F  0087        	mov sbp,a
 313  0040  2000     E  	call _Crom2Prom
 313  0041  0080     E  	mov ra,a
 313  0042  0F07        	mov a,7
 313  0043  0680     E  	andm a,ra
 313  0044  0700     E  	mov a,ra
 313  0045  0A04        	sub a,4
 313  0046  3D0A        	sz z
 313  0047  2800     R  	jmp _L50
 314  0048              #line 314 "F:\Project\Carilex\E-Signal\i2c\200323-1\200323-1\I2C_SUB..c"
 314  0048  0F01        	mov a,1
 314  0049  0080     R  	mov _ReadTOF_2[4],a
 314  004A  0700     E  	mov a,rb
 314  004B  0080     R  	mov _ReadTOF_2[2],a
 314  004C  0700     E  	mov a,rc
 314  004D  0080     R  	mov _ReadTOF_2[3],a
 314  004E  0F4F        	mov a,79
 314  004F  0080     R  	mov _ReadTOF_2[0],a
 314  0050  1F00     R  	clr _ReadTOF_2[1]
 314  0051  2000     R  	call _ReadTOF
 314  0052  0080     E  	mov ra,a
 314  0053  0700     R  	mov a,_doScan_2[0]
 314  0054  0080     E  	mov rb,a
 314  0055  0700     R  	mov a,_doScan_2[1]
 314  0056  0080     E  	mov rc,a
 314  0057  1080     E  	sz ra
 314  0058  2800     R  	jmp _LI6
 314  0059  2800     R  	jmp _L49
 314  005A              _LI6:
 316  005A              #line 316 "F:\Project\Carilex\E-Signal\i2c\200323-1\200323-1\I2C_SUB..c"
 316  005A  0F01        	mov a,1
 316  005B  0300     E  	add a,rb
 316  005C  0083        	mov mp,a
 316  005D  0F00        	mov a,0
 316  005E  1300     E  	adc a,rc
 316  005F  0087        	mov sbp,a
 316  0060  0707        	mov a,sbp
 316  0061  0084        	mov bp,a
 316  0062  0FFC        	mov a,252
 316  0063  0082        	mov ir,a
 316  0064  2800     R  	jmp _L55
 316  0065              _L49:
 321  0065              #line 321 "F:\Project\Carilex\E-Signal\i2c\200323-1\200323-1\I2C_SUB..c"
 321  0065  0700     E  	mov a,rb
"File: I2C_SUB..c    Assembler  Version HGASM0202      Page 59

 321  0066  0083        	mov mp,a
 321  0067  0700     E  	mov a,rc
 321  0068  0087        	mov sbp,a
 321  0069  2000     E  	call _Crom2Prom
 321  006A  0080     E  	mov ra,a
 321  006B  0FC0        	mov a,192
 321  006C  0680     E  	andm a,ra
 321  006D  1080     E  	sz ra
 321  006E  2800     R  	jmp _LI7
 321  006F  2800     R  	jmp _L51
 321  0070              _LI7:
 322  0070              #line 322 "F:\Project\Carilex\E-Signal\i2c\200323-1\200323-1\I2C_SUB..c"
 322  0070  0F01        	mov a,1
 322  0071  0300     E  	add a,rb
 322  0072  0083        	mov mp,a
 322  0073  0F00        	mov a,0
 322  0074  1300     E  	adc a,rc
 322  0075  0087        	mov sbp,a
 322  0076  0707        	mov a,sbp
 322  0077  0084        	mov bp,a
 322  0078  0FFE        	mov a,254
 322  0079  0082        	mov ir,a
 322  007A              _L55:
 323  007A              #line 323 "F:\Project\Carilex\E-Signal\i2c\200323-1\200323-1\I2C_SUB..c"
 323  007A  2000     E  	call _uart_sent
 325  007B              #line 325 "F:\Project\Carilex\E-Signal\i2c\200323-1\200323-1\I2C_SUB..c"
 325  007B  2800     R  	jmp _L50
 325  007C              _L51:
 328  007C              #line 328 "F:\Project\Carilex\E-Signal\i2c\200323-1\200323-1\I2C_SUB..c"
 328  007C              ;# 328 "F:\Project\Carilex\E-Signal\i2c\200323-1\200323-1\I2C_SUB..c" 1
 328  007C              	IF 100>263690
 328  007C              ;# 328 "F:\Project\Carilex\E-Signal\i2c\200323-1\200323-1\I2C_SUB..c" 1
 328  007C              	ERRMESSAGE 'the value 100of the argument exceeds the maxinum 263690'
 328  007C              	ENDIF
 328  007C              ;# 328 "F:\Project\Carilex\E-Signal\i2c\200323-1\200323-1\I2C_SUB..c" 1
 328  007C              	IF 100<0
 328  007C              ;# 328 "F:\Project\Carilex\E-Signal\i2c\200323-1\200323-1\I2C_SUB..c" 1
 328  007C              	ERRMESSAGE 'the value 100 of the argument exceeds the mininum 0'
 328  007C              	ENDIF
 328  007C              ;# 328 "F:\Project\Carilex\E-Signal\i2c\200323-1\200323-1\I2C_SUB..c" 1
 328  007C              	IF 100==0
 328  007C              ;# 328 "F:\Project\Carilex\E-Signal\i2c\200323-1\200323-1\I2C_SUB..c" 1
 328  007C              	JMP $
 328  007C              	ENDIF
 328  007C              ;# 328 "F:\Project\Carilex\E-Signal\i2c\200323-1\200323-1\I2C_SUB..c" 1
 328  007C              	IF 100==1
 328  007C              ;# 328 "F:\Project\Carilex\E-Signal\i2c\200323-1\200323-1\I2C_SUB..c" 1
 328  007C              	NOP
 328  007C              	ENDIF
 328  007C              ;# 328 "F:\Project\Carilex\E-Signal\i2c\200323-1\200323-1\I2C_SUB..c" 1
 328  007C              	IF 100==2
 328  007C              ;# 328 "F:\Project\Carilex\E-Signal\i2c\200323-1\200323-1\I2C_SUB..c" 1
 328  007C              	NOP
 328  007C              ;# 328 "F:\Project\Carilex\E-Signal\i2c\200323-1\200323-1\I2C_SUB..c" 1
 328  007C              	NOP
 328  007C              	ENDIF
 328  007C              ;# 328 "F:\Project\Carilex\E-Signal\i2c\200323-1\200323-1\I2C_SUB..c" 1
 328  007C              	IF 100==3
 328  007C              ;# 328 "F:\Project\Carilex\E-Signal\i2c\200323-1\200323-1\I2C_SUB..c" 1
 328  007C              	NOP
"File: I2C_SUB..c    Assembler  Version HGASM0202      Page 60

 328  007C              ;# 328 "F:\Project\Carilex\E-Signal\i2c\200323-1\200323-1\I2C_SUB..c" 1
 328  007C              	NOP
 328  007C              ;# 328 "F:\Project\Carilex\E-Signal\i2c\200323-1\200323-1\I2C_SUB..c" 1
 328  007C              	NOP
 328  007C              	ENDIF
 328  007C              ;# 328 "F:\Project\Carilex\E-Signal\i2c\200323-1\200323-1\I2C_SUB..c" 1
 328  007C              	IF (100<8) AND (100>3)
 328  007C              ;# 328 "F:\Project\Carilex\E-Signal\i2c\200323-1\200323-1\I2C_SUB..c" 1
 328  007C              	CALL __DELAY3 + 7 -100
 328  007C              	ENDIF
 328  007C              ;# 328 "F:\Project\Carilex\E-Signal\i2c\200323-1\200323-1\I2C_SUB..c" 1
 328  007C              	IF (100< 0404h) AND (100>7)
 328  007C              ;# 328 "F:\Project\Carilex\E-Signal\i2c\200323-1\200323-1\I2C_SUB..c" 1
 328  007C  0F18        	MOV A,100/4-1
 328  007D              ;# 328 "F:\Project\Carilex\E-Signal\i2c\200323-1\200323-1\I2C_SUB..c" 1
 328  007D  2000     E  	CALL __DELAYX3 + 3 -(100 MOD 4)
 328  007E              	ENDIF
 328  007E              ;# 328 "F:\Project\Carilex\E-Signal\i2c\200323-1\200323-1\I2C_SUB..c" 1
 328  007E              	IF (100< 0x40B) AND (100> 0403h)
 328  007E              ;# 328 "F:\Project\Carilex\E-Signal\i2c\200323-1\200323-1\I2C_SUB..c" 1
 328  007E              	MOV A,0 
 328  007E              ;# 328 "F:\Project\Carilex\E-Signal\i2c\200323-1\200323-1\I2C_SUB..c" 1
 328  007E              	CALL __DELAYX6 + 0x40a -100
 328  007E              	ENDIF
 328  007E              ;# 328 "F:\Project\Carilex\E-Signal\i2c\200323-1\200323-1\I2C_SUB..c" 1
 328  007E              	IF (100 >= 0x40b) AND ((((100-9)%0402h)/4+1)>256)
 328  007E              ;# 328 "F:\Project\Carilex\E-Signal\i2c\200323-1\200323-1\I2C_SUB..c" 1
 328  007E              	MOV A,(100-9)/0402h
 328  007E              ;# 328 "F:\Project\Carilex\E-Signal\i2c\200323-1\200323-1\I2C_SUB..c" 1
 328  007E              	MOV _builtin_holtek_delay_2,A
 328  007E              ;# 328 "F:\Project\Carilex\E-Signal\i2c\200323-1\200323-1\I2C_SUB..c" 1
 328  007E              	MOV A,0
 328  007E              ;# 328 "F:\Project\Carilex\E-Signal\i2c\200323-1\200323-1\I2C_SUB..c" 1
 328  007E              	CALL __DELAYY5 +5- (((100-9)%0402h)%6)
 328  007E              	ENDIF
 328  007E              ;# 328 "F:\Project\Carilex\E-Signal\i2c\200323-1\200323-1\I2C_SUB..c" 1
 328  007E              	IF (100 >= 0x40b) AND ((((100-9)%0402h)/4+1)<=256)
 328  007E              ;# 328 "F:\Project\Carilex\E-Signal\i2c\200323-1\200323-1\I2C_SUB..c" 1
 328  007E              	MOV A,(100-9)/0402h
 328  007E              ;# 328 "F:\Project\Carilex\E-Signal\i2c\200323-1\200323-1\I2C_SUB..c" 1
 328  007E              	MOV _builtin_holtek_delay_2,A
 328  007E              ;# 328 "F:\Project\Carilex\E-Signal\i2c\200323-1\200323-1\I2C_SUB..c" 1
 328  007E              	MOV A,((100-9)%0402h)/4+1
 328  007E              ;# 328 "F:\Project\Carilex\E-Signal\i2c\200323-1\200323-1\I2C_SUB..c" 1
 328  007E              	CALL __DELAYY3 +3-(((100-9)%0402h)%4)
 328  007E              	ENDIF
 329  007E              #line 329 "F:\Project\Carilex\E-Signal\i2c\200323-1\200323-1\I2C_SUB..c"
 329  007E  1480     R  	inc _doScan_2[2]
 329  007F  0FC8        	mov a,200
 329  0080  0200     R  	sub a,_doScan_2[2]
 329  0081  3C0A        	sz c
 329  0082  2800     R  	jmp _L53
 330  0083              #line 330 "F:\Project\Carilex\E-Signal\i2c\200323-1\200323-1\I2C_SUB..c"
 330  0083  0F01        	mov a,1
 330  0084  0300     E  	add a,rb
 330  0085  0083        	mov mp,a
 330  0086  0F00        	mov a,0
 330  0087  1300     E  	adc a,rc
 330  0088  0087        	mov sbp,a
 330  0089  0707        	mov a,sbp
"File: I2C_SUB..c    Assembler  Version HGASM0202      Page 61

 330  008A  0084        	mov bp,a
 330  008B  0FFD        	mov a,253
 330  008C  0082        	mov ir,a
 331  008D              #line 331 "F:\Project\Carilex\E-Signal\i2c\200323-1\200323-1\I2C_SUB..c"
 331  008D  2000     E  	call _uart_sent
 332  008E              #line 332 "F:\Project\Carilex\E-Signal\i2c\200323-1\200323-1\I2C_SUB..c"
 332  008E  1F00     R  	clr _doScan_2[2]
 332  008F  2800     R  	jmp _L53
 332  0090              _L50:
 335  0090              #line 335 "F:\Project\Carilex\E-Signal\i2c\200323-1\200323-1\I2C_SUB..c"
 335  0090  0F01        	mov a,1
 335  0091  0080     R  	mov _ReadTOF_2[4],a
 335  0092  0700     R  	mov a,_doScan_2[0]
 335  0093  0080     R  	mov _ReadTOF_2[2],a
 335  0094  0700     R  	mov a,_doScan_2[1]
 335  0095  0080     R  	mov _ReadTOF_2[3],a
 335  0096  0F62        	mov a,98
 335  0097  0080     R  	mov _ReadTOF_2[0],a
 335  0098  1F00     R  	clr _ReadTOF_2[1]
 335  0099  2000     R  	call _ReadTOF
 336  009A              #line 336 "F:\Project\Carilex\E-Signal\i2c\200323-1\200323-1\I2C_SUB..c"
 336  009A  0F07        	mov a,7
 336  009B  0080     R  	mov _ByteWriteTOF_2[2],a
 336  009C  0F15        	mov a,21
 336  009D  0080     R  	mov _ByteWriteTOF_2[0],a
 336  009E  1F00     R  	clr _ByteWriteTOF_2[1]
 336  009F  2000     R  	call _ByteWriteTOF
 337  00A0              #line 337 "F:\Project\Carilex\E-Signal\i2c\200323-1\200323-1\I2C_SUB..c"
 337  00A0  0F01        	mov a,1
 337  00A1  0300     R  	add a,_doScan_2[0]
 337  00A2  0083        	mov mp,a
 337  00A3  0F00        	mov a,0
 337  00A4  1300     R  	adc a,_doScan_2[1]
 337  00A5  0087        	mov sbp,a
 337  00A6  0707        	mov a,sbp
 337  00A7  0084        	mov bp,a
 337  00A8  0FAA        	mov a,170
 337  00A9  0082        	mov ir,a
 338  00AA              #line 338 "F:\Project\Carilex\E-Signal\i2c\200323-1\200323-1\I2C_SUB..c"
 338  00AA  2000     E  	call _uart_sent
 338  00AB  0003        	ret
 338  00AC              _doScan endp
 338  00AC              #line 338 "F:\Project\Carilex\E-Signal\i2c\200323-1\200323-1\I2C_SUB..c"
 338  00AC              #pragma debug scope 1 1
 338  00AC              #pragma debug struct_end
 338  00AC              #pragma debug struct_end
 338  00AC              #pragma debug union_end
 338  00AC              #pragma debug union_end
 338  00AC              #pragma debug variable 47 1 ___pa "__pa" 1
 338  00AC              #pragma debug struct_end
 338  00AC              #pragma debug struct_end
 338  00AC              #pragma debug union_end
 338  00AC              #pragma debug union_end
 338  00AC              #pragma debug variable 49 1 ___pac "__pac" 1
 338  00AC              #pragma debug struct_end
 338  00AC              #pragma debug struct_end
 338  00AC              #pragma debug union_end
 338  00AC              #pragma debug union_end
 338  00AC              #pragma debug variable 51 1 ___papu "__papu" 1
 338  00AC              #pragma debug struct_end
"File: I2C_SUB..c    Assembler  Version HGASM0202      Page 62

 338  00AC              #pragma debug struct_end
 338  00AC              #pragma debug union_end
 338  00AC              #pragma debug union_end
 338  00AC              #pragma debug variable 53 1 ___pb "__pb" 1
 338  00AC              #pragma debug struct_end
 338  00AC              #pragma debug struct_end
 338  00AC              #pragma debug union_end
 338  00AC              #pragma debug union_end
 338  00AC              #pragma debug variable 55 1 ___pbc "__pbc" 1
 338  00AC              #pragma debug struct_end
 338  00AC              #pragma debug struct_end
 338  00AC              #pragma debug union_end
 338  00AC              #pragma debug union_end
 338  00AC              #pragma debug variable 57 1 ___pbpu "__pbpu" 1
 338  00AC              extern _uart_sent:near
 338  00AC              
 338  00AC              ; 
 338  00AC              ; Generated by holtek-gcc v3.19, Mon Apr 06 10:41:27 2020
 338  00AC              ; Rebuild 718
 338  00AC              ; end of file


        0 Errors, 0